ARM GAS  /tmp/ccfHzE7k.s 			page 1


   1              		.cpu cortex-m0
   2              		.eabi_attribute 20, 1
   3              		.eabi_attribute 21, 1
   4              		.eabi_attribute 23, 3
   5              		.eabi_attribute 24, 1
   6              		.eabi_attribute 25, 1
   7              		.eabi_attribute 26, 1
   8              		.eabi_attribute 30, 2
   9              		.eabi_attribute 34, 0
  10              		.eabi_attribute 18, 4
  11              		.file	"gpio.c"
  12              		.text
  13              	.Ltext0:
  14              		.cfi_sections	.debug_frame
  15              		.section	.text.MX_GPIO_Init,"ax",%progbits
  16              		.align	1
  17              		.p2align 2,,3
  18              		.global	MX_GPIO_Init
  19              		.syntax unified
  20              		.code	16
  21              		.thumb_func
  22              		.fpu softvfp
  24              	MX_GPIO_Init:
  25              	.LFB521:
  26              		.file 1 "Core/Src/gpio.c"
   1:Core/Src/gpio.c **** /**
   2:Core/Src/gpio.c ****   ******************************************************************************
   3:Core/Src/gpio.c ****   * @file    gpio.c
   4:Core/Src/gpio.c ****   * @brief   This file provides code for the configuration
   5:Core/Src/gpio.c ****   *          of all used GPIO pins.
   6:Core/Src/gpio.c ****   ******************************************************************************
   7:Core/Src/gpio.c ****   * @attention
   8:Core/Src/gpio.c ****   *
   9:Core/Src/gpio.c ****   * <h2><center>&copy; Copyright (c) 2021 STMicroelectronics.
  10:Core/Src/gpio.c ****   * All rights reserved.</center></h2>
  11:Core/Src/gpio.c ****   *
  12:Core/Src/gpio.c ****   * This software component is licensed by ST under BSD 3-Clause license,
  13:Core/Src/gpio.c ****   * the "License"; You may not use this file except in compliance with the
  14:Core/Src/gpio.c ****   * License. You may obtain a copy of the License at:
  15:Core/Src/gpio.c ****   *                        opensource.org/licenses/BSD-3-Clause
  16:Core/Src/gpio.c ****   *
  17:Core/Src/gpio.c ****   ******************************************************************************
  18:Core/Src/gpio.c ****   */
  19:Core/Src/gpio.c **** 
  20:Core/Src/gpio.c **** /* Includes ------------------------------------------------------------------*/
  21:Core/Src/gpio.c **** #include "gpio.h"
  22:Core/Src/gpio.c **** 
  23:Core/Src/gpio.c **** /* USER CODE BEGIN 0 */
  24:Core/Src/gpio.c **** 
  25:Core/Src/gpio.c **** /* USER CODE END 0 */
  26:Core/Src/gpio.c **** 
  27:Core/Src/gpio.c **** /*----------------------------------------------------------------------------*/
  28:Core/Src/gpio.c **** /* Configure GPIO                                                             */
  29:Core/Src/gpio.c **** /*----------------------------------------------------------------------------*/
  30:Core/Src/gpio.c **** /* USER CODE BEGIN 1 */
  31:Core/Src/gpio.c **** 
  32:Core/Src/gpio.c **** /* USER CODE END 1 */
ARM GAS  /tmp/ccfHzE7k.s 			page 2


  33:Core/Src/gpio.c **** 
  34:Core/Src/gpio.c **** /** Configure pins as
  35:Core/Src/gpio.c ****         * Analog
  36:Core/Src/gpio.c ****         * Input
  37:Core/Src/gpio.c ****         * Output
  38:Core/Src/gpio.c ****         * EVENT_OUT
  39:Core/Src/gpio.c ****         * EXTI
  40:Core/Src/gpio.c **** */
  41:Core/Src/gpio.c **** void MX_GPIO_Init(void)
  42:Core/Src/gpio.c **** {
  27              		.loc 1 42 0
  28              		.cfi_startproc
  29              		@ args = 0, pretend = 0, frame = 40
  30              		@ frame_needed = 0, uses_anonymous_args = 0
  31 0000 F0B5     		push	{r4, r5, r6, r7, lr}
  32              	.LCFI0:
  33              		.cfi_def_cfa_offset 20
  34              		.cfi_offset 4, -20
  35              		.cfi_offset 5, -16
  36              		.cfi_offset 6, -12
  37              		.cfi_offset 7, -8
  38              		.cfi_offset 14, -4
  39 0002 DE46     		mov	lr, fp
  40 0004 5746     		mov	r7, r10
  41 0006 4E46     		mov	r6, r9
  42 0008 4546     		mov	r5, r8
  43:Core/Src/gpio.c **** 
  44:Core/Src/gpio.c ****   LL_EXTI_InitTypeDef EXTI_InitStruct = {0};
  43              		.loc 1 44 0
  44 000a 0823     		movs	r3, #8
  42:Core/Src/gpio.c **** 
  45              		.loc 1 42 0
  46 000c E0B5     		push	{r5, r6, r7, lr}
  47              	.LCFI1:
  48              		.cfi_def_cfa_offset 36
  49              		.cfi_offset 8, -36
  50              		.cfi_offset 9, -32
  51              		.cfi_offset 10, -28
  52              		.cfi_offset 11, -24
  53 000e 8BB0     		sub	sp, sp, #44
  54              	.LCFI2:
  55              		.cfi_def_cfa_offset 80
  56              		.loc 1 44 0
  57 0010 02AF     		add	r7, sp, #8
  58 0012 0822     		movs	r2, #8
  59 0014 0021     		movs	r1, #0
  60 0016 3800     		movs	r0, r7
  61 0018 9A46     		mov	r10, r3
  62 001a FFF7FEFF 		bl	memset
  63              	.LVL0:
  45:Core/Src/gpio.c ****   LL_GPIO_InitTypeDef GPIO_InitStruct = {0};
  64              		.loc 1 45 0
  65 001e 1822     		movs	r2, #24
  66 0020 0021     		movs	r1, #0
  67 0022 04A8     		add	r0, sp, #16
  68 0024 FFF7FEFF 		bl	memset
  69              	.LVL1:
ARM GAS  /tmp/ccfHzE7k.s 			page 3


  70              	.LBB24:
  71              	.LBB25:
  72              		.file 2 "Drivers/STM32F0xx_HAL_Driver/Inc/stm32f0xx_ll_bus.h"
   1:Drivers/STM32F0xx_HAL_Driver/Inc/stm32f0xx_ll_bus.h **** /**
   2:Drivers/STM32F0xx_HAL_Driver/Inc/stm32f0xx_ll_bus.h ****   ******************************************************************************
   3:Drivers/STM32F0xx_HAL_Driver/Inc/stm32f0xx_ll_bus.h ****   * @file    stm32f0xx_ll_bus.h
   4:Drivers/STM32F0xx_HAL_Driver/Inc/stm32f0xx_ll_bus.h ****   * @author  MCD Application Team
   5:Drivers/STM32F0xx_HAL_Driver/Inc/stm32f0xx_ll_bus.h ****   * @brief   Header file of BUS LL module.
   6:Drivers/STM32F0xx_HAL_Driver/Inc/stm32f0xx_ll_bus.h **** 
   7:Drivers/STM32F0xx_HAL_Driver/Inc/stm32f0xx_ll_bus.h ****   @verbatim                
   8:Drivers/STM32F0xx_HAL_Driver/Inc/stm32f0xx_ll_bus.h ****                       ##### RCC Limitations #####
   9:Drivers/STM32F0xx_HAL_Driver/Inc/stm32f0xx_ll_bus.h ****   ==============================================================================
  10:Drivers/STM32F0xx_HAL_Driver/Inc/stm32f0xx_ll_bus.h ****     [..]  
  11:Drivers/STM32F0xx_HAL_Driver/Inc/stm32f0xx_ll_bus.h ****       A delay between an RCC peripheral clock enable and the effective peripheral 
  12:Drivers/STM32F0xx_HAL_Driver/Inc/stm32f0xx_ll_bus.h ****       enabling should be taken into account in order to manage the peripheral read/write 
  13:Drivers/STM32F0xx_HAL_Driver/Inc/stm32f0xx_ll_bus.h ****       from/to registers.
  14:Drivers/STM32F0xx_HAL_Driver/Inc/stm32f0xx_ll_bus.h ****       (+) This delay depends on the peripheral mapping.
  15:Drivers/STM32F0xx_HAL_Driver/Inc/stm32f0xx_ll_bus.h ****         (++) AHB & APB peripherals, 1 dummy read is necessary
  16:Drivers/STM32F0xx_HAL_Driver/Inc/stm32f0xx_ll_bus.h **** 
  17:Drivers/STM32F0xx_HAL_Driver/Inc/stm32f0xx_ll_bus.h ****     [..]  
  18:Drivers/STM32F0xx_HAL_Driver/Inc/stm32f0xx_ll_bus.h ****       Workarounds:
  19:Drivers/STM32F0xx_HAL_Driver/Inc/stm32f0xx_ll_bus.h ****       (#) For AHB & APB peripherals, a dummy read to the peripheral register has been
  20:Drivers/STM32F0xx_HAL_Driver/Inc/stm32f0xx_ll_bus.h ****           inserted in each LL_{BUS}_GRP{x}_EnableClock() function.
  21:Drivers/STM32F0xx_HAL_Driver/Inc/stm32f0xx_ll_bus.h **** 
  22:Drivers/STM32F0xx_HAL_Driver/Inc/stm32f0xx_ll_bus.h ****   @endverbatim
  23:Drivers/STM32F0xx_HAL_Driver/Inc/stm32f0xx_ll_bus.h ****   ******************************************************************************
  24:Drivers/STM32F0xx_HAL_Driver/Inc/stm32f0xx_ll_bus.h ****   * @attention
  25:Drivers/STM32F0xx_HAL_Driver/Inc/stm32f0xx_ll_bus.h ****   *
  26:Drivers/STM32F0xx_HAL_Driver/Inc/stm32f0xx_ll_bus.h ****   * <h2><center>&copy; Copyright (c) 2016 STMicroelectronics.
  27:Drivers/STM32F0xx_HAL_Driver/Inc/stm32f0xx_ll_bus.h ****   * All rights reserved.</center></h2>
  28:Drivers/STM32F0xx_HAL_Driver/Inc/stm32f0xx_ll_bus.h ****   *
  29:Drivers/STM32F0xx_HAL_Driver/Inc/stm32f0xx_ll_bus.h ****   * This software component is licensed by ST under BSD 3-Clause license,
  30:Drivers/STM32F0xx_HAL_Driver/Inc/stm32f0xx_ll_bus.h ****   * the "License"; You may not use this file except in compliance with the
  31:Drivers/STM32F0xx_HAL_Driver/Inc/stm32f0xx_ll_bus.h ****   * License. You may obtain a copy of the License at:
  32:Drivers/STM32F0xx_HAL_Driver/Inc/stm32f0xx_ll_bus.h ****   *                        opensource.org/licenses/BSD-3-Clause
  33:Drivers/STM32F0xx_HAL_Driver/Inc/stm32f0xx_ll_bus.h ****   *
  34:Drivers/STM32F0xx_HAL_Driver/Inc/stm32f0xx_ll_bus.h ****   ******************************************************************************
  35:Drivers/STM32F0xx_HAL_Driver/Inc/stm32f0xx_ll_bus.h ****   */
  36:Drivers/STM32F0xx_HAL_Driver/Inc/stm32f0xx_ll_bus.h **** 
  37:Drivers/STM32F0xx_HAL_Driver/Inc/stm32f0xx_ll_bus.h **** /* Define to prevent recursive inclusion -------------------------------------*/
  38:Drivers/STM32F0xx_HAL_Driver/Inc/stm32f0xx_ll_bus.h **** #ifndef __STM32F0xx_LL_BUS_H
  39:Drivers/STM32F0xx_HAL_Driver/Inc/stm32f0xx_ll_bus.h **** #define __STM32F0xx_LL_BUS_H
  40:Drivers/STM32F0xx_HAL_Driver/Inc/stm32f0xx_ll_bus.h **** 
  41:Drivers/STM32F0xx_HAL_Driver/Inc/stm32f0xx_ll_bus.h **** #ifdef __cplusplus
  42:Drivers/STM32F0xx_HAL_Driver/Inc/stm32f0xx_ll_bus.h **** extern "C" {
  43:Drivers/STM32F0xx_HAL_Driver/Inc/stm32f0xx_ll_bus.h **** #endif
  44:Drivers/STM32F0xx_HAL_Driver/Inc/stm32f0xx_ll_bus.h **** 
  45:Drivers/STM32F0xx_HAL_Driver/Inc/stm32f0xx_ll_bus.h **** /* Includes ------------------------------------------------------------------*/
  46:Drivers/STM32F0xx_HAL_Driver/Inc/stm32f0xx_ll_bus.h **** #include "stm32f0xx.h"
  47:Drivers/STM32F0xx_HAL_Driver/Inc/stm32f0xx_ll_bus.h **** 
  48:Drivers/STM32F0xx_HAL_Driver/Inc/stm32f0xx_ll_bus.h **** /** @addtogroup STM32F0xx_LL_Driver
  49:Drivers/STM32F0xx_HAL_Driver/Inc/stm32f0xx_ll_bus.h ****   * @{
  50:Drivers/STM32F0xx_HAL_Driver/Inc/stm32f0xx_ll_bus.h ****   */
  51:Drivers/STM32F0xx_HAL_Driver/Inc/stm32f0xx_ll_bus.h **** 
  52:Drivers/STM32F0xx_HAL_Driver/Inc/stm32f0xx_ll_bus.h **** #if defined(RCC)
  53:Drivers/STM32F0xx_HAL_Driver/Inc/stm32f0xx_ll_bus.h **** 
  54:Drivers/STM32F0xx_HAL_Driver/Inc/stm32f0xx_ll_bus.h **** /** @defgroup BUS_LL BUS
ARM GAS  /tmp/ccfHzE7k.s 			page 4


  55:Drivers/STM32F0xx_HAL_Driver/Inc/stm32f0xx_ll_bus.h ****   * @{
  56:Drivers/STM32F0xx_HAL_Driver/Inc/stm32f0xx_ll_bus.h ****   */
  57:Drivers/STM32F0xx_HAL_Driver/Inc/stm32f0xx_ll_bus.h **** 
  58:Drivers/STM32F0xx_HAL_Driver/Inc/stm32f0xx_ll_bus.h **** /* Private types -------------------------------------------------------------*/
  59:Drivers/STM32F0xx_HAL_Driver/Inc/stm32f0xx_ll_bus.h **** /* Private variables ---------------------------------------------------------*/
  60:Drivers/STM32F0xx_HAL_Driver/Inc/stm32f0xx_ll_bus.h **** 
  61:Drivers/STM32F0xx_HAL_Driver/Inc/stm32f0xx_ll_bus.h **** /* Private constants ---------------------------------------------------------*/
  62:Drivers/STM32F0xx_HAL_Driver/Inc/stm32f0xx_ll_bus.h **** 
  63:Drivers/STM32F0xx_HAL_Driver/Inc/stm32f0xx_ll_bus.h **** /* Private macros ------------------------------------------------------------*/
  64:Drivers/STM32F0xx_HAL_Driver/Inc/stm32f0xx_ll_bus.h **** 
  65:Drivers/STM32F0xx_HAL_Driver/Inc/stm32f0xx_ll_bus.h **** /* Exported types ------------------------------------------------------------*/
  66:Drivers/STM32F0xx_HAL_Driver/Inc/stm32f0xx_ll_bus.h **** /* Exported constants --------------------------------------------------------*/
  67:Drivers/STM32F0xx_HAL_Driver/Inc/stm32f0xx_ll_bus.h **** /** @defgroup BUS_LL_Exported_Constants BUS Exported Constants
  68:Drivers/STM32F0xx_HAL_Driver/Inc/stm32f0xx_ll_bus.h ****   * @{
  69:Drivers/STM32F0xx_HAL_Driver/Inc/stm32f0xx_ll_bus.h ****   */
  70:Drivers/STM32F0xx_HAL_Driver/Inc/stm32f0xx_ll_bus.h **** 
  71:Drivers/STM32F0xx_HAL_Driver/Inc/stm32f0xx_ll_bus.h **** /** @defgroup BUS_LL_EC_AHB1_GRP1_PERIPH  AHB1 GRP1 PERIPH
  72:Drivers/STM32F0xx_HAL_Driver/Inc/stm32f0xx_ll_bus.h ****   * @{
  73:Drivers/STM32F0xx_HAL_Driver/Inc/stm32f0xx_ll_bus.h ****   */
  74:Drivers/STM32F0xx_HAL_Driver/Inc/stm32f0xx_ll_bus.h **** #define LL_AHB1_GRP1_PERIPH_ALL            (uint32_t)0xFFFFFFFFU
  75:Drivers/STM32F0xx_HAL_Driver/Inc/stm32f0xx_ll_bus.h **** #define LL_AHB1_GRP1_PERIPH_DMA1           RCC_AHBENR_DMA1EN
  76:Drivers/STM32F0xx_HAL_Driver/Inc/stm32f0xx_ll_bus.h **** #if defined(DMA2)
  77:Drivers/STM32F0xx_HAL_Driver/Inc/stm32f0xx_ll_bus.h **** #define LL_AHB1_GRP1_PERIPH_DMA2           RCC_AHBENR_DMA2EN
  78:Drivers/STM32F0xx_HAL_Driver/Inc/stm32f0xx_ll_bus.h **** #endif /*DMA2*/
  79:Drivers/STM32F0xx_HAL_Driver/Inc/stm32f0xx_ll_bus.h **** #define LL_AHB1_GRP1_PERIPH_SRAM           RCC_AHBENR_SRAMEN
  80:Drivers/STM32F0xx_HAL_Driver/Inc/stm32f0xx_ll_bus.h **** #define LL_AHB1_GRP1_PERIPH_FLASH          RCC_AHBENR_FLITFEN
  81:Drivers/STM32F0xx_HAL_Driver/Inc/stm32f0xx_ll_bus.h **** #define LL_AHB1_GRP1_PERIPH_CRC            RCC_AHBENR_CRCEN
  82:Drivers/STM32F0xx_HAL_Driver/Inc/stm32f0xx_ll_bus.h **** #define LL_AHB1_GRP1_PERIPH_GPIOA          RCC_AHBENR_GPIOAEN
  83:Drivers/STM32F0xx_HAL_Driver/Inc/stm32f0xx_ll_bus.h **** #define LL_AHB1_GRP1_PERIPH_GPIOB          RCC_AHBENR_GPIOBEN
  84:Drivers/STM32F0xx_HAL_Driver/Inc/stm32f0xx_ll_bus.h **** #define LL_AHB1_GRP1_PERIPH_GPIOC          RCC_AHBENR_GPIOCEN
  85:Drivers/STM32F0xx_HAL_Driver/Inc/stm32f0xx_ll_bus.h **** #if defined(GPIOD)
  86:Drivers/STM32F0xx_HAL_Driver/Inc/stm32f0xx_ll_bus.h **** #define LL_AHB1_GRP1_PERIPH_GPIOD          RCC_AHBENR_GPIODEN
  87:Drivers/STM32F0xx_HAL_Driver/Inc/stm32f0xx_ll_bus.h **** #endif /*GPIOD*/
  88:Drivers/STM32F0xx_HAL_Driver/Inc/stm32f0xx_ll_bus.h **** #if defined(GPIOE)
  89:Drivers/STM32F0xx_HAL_Driver/Inc/stm32f0xx_ll_bus.h **** #define LL_AHB1_GRP1_PERIPH_GPIOE          RCC_AHBENR_GPIOEEN
  90:Drivers/STM32F0xx_HAL_Driver/Inc/stm32f0xx_ll_bus.h **** #endif /*GPIOE*/
  91:Drivers/STM32F0xx_HAL_Driver/Inc/stm32f0xx_ll_bus.h **** #define LL_AHB1_GRP1_PERIPH_GPIOF          RCC_AHBENR_GPIOFEN
  92:Drivers/STM32F0xx_HAL_Driver/Inc/stm32f0xx_ll_bus.h **** #if defined(TSC)
  93:Drivers/STM32F0xx_HAL_Driver/Inc/stm32f0xx_ll_bus.h **** #define LL_AHB1_GRP1_PERIPH_TSC            RCC_AHBENR_TSCEN
  94:Drivers/STM32F0xx_HAL_Driver/Inc/stm32f0xx_ll_bus.h **** #endif /*TSC*/
  95:Drivers/STM32F0xx_HAL_Driver/Inc/stm32f0xx_ll_bus.h **** /**
  96:Drivers/STM32F0xx_HAL_Driver/Inc/stm32f0xx_ll_bus.h ****   * @}
  97:Drivers/STM32F0xx_HAL_Driver/Inc/stm32f0xx_ll_bus.h ****   */
  98:Drivers/STM32F0xx_HAL_Driver/Inc/stm32f0xx_ll_bus.h **** 
  99:Drivers/STM32F0xx_HAL_Driver/Inc/stm32f0xx_ll_bus.h **** /** @defgroup BUS_LL_EC_APB1_GRP1_PERIPH  APB1 GRP1 PERIPH
 100:Drivers/STM32F0xx_HAL_Driver/Inc/stm32f0xx_ll_bus.h ****   * @{
 101:Drivers/STM32F0xx_HAL_Driver/Inc/stm32f0xx_ll_bus.h ****   */
 102:Drivers/STM32F0xx_HAL_Driver/Inc/stm32f0xx_ll_bus.h **** #define LL_APB1_GRP1_PERIPH_ALL            (uint32_t)0xFFFFFFFFU
 103:Drivers/STM32F0xx_HAL_Driver/Inc/stm32f0xx_ll_bus.h **** #if defined(TIM2)
 104:Drivers/STM32F0xx_HAL_Driver/Inc/stm32f0xx_ll_bus.h **** #define LL_APB1_GRP1_PERIPH_TIM2           RCC_APB1ENR_TIM2EN
 105:Drivers/STM32F0xx_HAL_Driver/Inc/stm32f0xx_ll_bus.h **** #endif /*TIM2*/
 106:Drivers/STM32F0xx_HAL_Driver/Inc/stm32f0xx_ll_bus.h **** #define LL_APB1_GRP1_PERIPH_TIM3           RCC_APB1ENR_TIM3EN
 107:Drivers/STM32F0xx_HAL_Driver/Inc/stm32f0xx_ll_bus.h **** #if defined(TIM6)
 108:Drivers/STM32F0xx_HAL_Driver/Inc/stm32f0xx_ll_bus.h **** #define LL_APB1_GRP1_PERIPH_TIM6           RCC_APB1ENR_TIM6EN
 109:Drivers/STM32F0xx_HAL_Driver/Inc/stm32f0xx_ll_bus.h **** #endif /*TIM6*/
 110:Drivers/STM32F0xx_HAL_Driver/Inc/stm32f0xx_ll_bus.h **** #if defined(TIM7)
 111:Drivers/STM32F0xx_HAL_Driver/Inc/stm32f0xx_ll_bus.h **** #define LL_APB1_GRP1_PERIPH_TIM7           RCC_APB1ENR_TIM7EN
ARM GAS  /tmp/ccfHzE7k.s 			page 5


 112:Drivers/STM32F0xx_HAL_Driver/Inc/stm32f0xx_ll_bus.h **** #endif /*TIM7*/
 113:Drivers/STM32F0xx_HAL_Driver/Inc/stm32f0xx_ll_bus.h **** #define LL_APB1_GRP1_PERIPH_TIM14          RCC_APB1ENR_TIM14EN
 114:Drivers/STM32F0xx_HAL_Driver/Inc/stm32f0xx_ll_bus.h **** #define LL_APB1_GRP1_PERIPH_WWDG           RCC_APB1ENR_WWDGEN
 115:Drivers/STM32F0xx_HAL_Driver/Inc/stm32f0xx_ll_bus.h **** #if defined(SPI2)
 116:Drivers/STM32F0xx_HAL_Driver/Inc/stm32f0xx_ll_bus.h **** #define LL_APB1_GRP1_PERIPH_SPI2           RCC_APB1ENR_SPI2EN
 117:Drivers/STM32F0xx_HAL_Driver/Inc/stm32f0xx_ll_bus.h **** #endif /*SPI2*/
 118:Drivers/STM32F0xx_HAL_Driver/Inc/stm32f0xx_ll_bus.h **** #if defined(USART2)
 119:Drivers/STM32F0xx_HAL_Driver/Inc/stm32f0xx_ll_bus.h **** #define LL_APB1_GRP1_PERIPH_USART2         RCC_APB1ENR_USART2EN
 120:Drivers/STM32F0xx_HAL_Driver/Inc/stm32f0xx_ll_bus.h **** #endif /* USART2 */
 121:Drivers/STM32F0xx_HAL_Driver/Inc/stm32f0xx_ll_bus.h **** #if defined(USART3)
 122:Drivers/STM32F0xx_HAL_Driver/Inc/stm32f0xx_ll_bus.h **** #define LL_APB1_GRP1_PERIPH_USART3         RCC_APB1ENR_USART3EN
 123:Drivers/STM32F0xx_HAL_Driver/Inc/stm32f0xx_ll_bus.h **** #endif /* USART3 */
 124:Drivers/STM32F0xx_HAL_Driver/Inc/stm32f0xx_ll_bus.h **** #if defined(USART4)
 125:Drivers/STM32F0xx_HAL_Driver/Inc/stm32f0xx_ll_bus.h **** #define LL_APB1_GRP1_PERIPH_USART4         RCC_APB1ENR_USART4EN
 126:Drivers/STM32F0xx_HAL_Driver/Inc/stm32f0xx_ll_bus.h **** #endif /* USART4 */
 127:Drivers/STM32F0xx_HAL_Driver/Inc/stm32f0xx_ll_bus.h **** #if defined(USART5)
 128:Drivers/STM32F0xx_HAL_Driver/Inc/stm32f0xx_ll_bus.h **** #define LL_APB1_GRP1_PERIPH_USART5         RCC_APB1ENR_USART5EN
 129:Drivers/STM32F0xx_HAL_Driver/Inc/stm32f0xx_ll_bus.h **** #endif /* USART5 */
 130:Drivers/STM32F0xx_HAL_Driver/Inc/stm32f0xx_ll_bus.h **** #define LL_APB1_GRP1_PERIPH_I2C1           RCC_APB1ENR_I2C1EN
 131:Drivers/STM32F0xx_HAL_Driver/Inc/stm32f0xx_ll_bus.h **** #if defined(I2C2)
 132:Drivers/STM32F0xx_HAL_Driver/Inc/stm32f0xx_ll_bus.h **** #define LL_APB1_GRP1_PERIPH_I2C2           RCC_APB1ENR_I2C2EN
 133:Drivers/STM32F0xx_HAL_Driver/Inc/stm32f0xx_ll_bus.h **** #endif /*I2C2*/
 134:Drivers/STM32F0xx_HAL_Driver/Inc/stm32f0xx_ll_bus.h **** #if defined(USB)
 135:Drivers/STM32F0xx_HAL_Driver/Inc/stm32f0xx_ll_bus.h **** #define LL_APB1_GRP1_PERIPH_USB            RCC_APB1ENR_USBEN
 136:Drivers/STM32F0xx_HAL_Driver/Inc/stm32f0xx_ll_bus.h **** #endif /* USB */
 137:Drivers/STM32F0xx_HAL_Driver/Inc/stm32f0xx_ll_bus.h **** #if defined(CAN)
 138:Drivers/STM32F0xx_HAL_Driver/Inc/stm32f0xx_ll_bus.h **** #define LL_APB1_GRP1_PERIPH_CAN            RCC_APB1ENR_CANEN
 139:Drivers/STM32F0xx_HAL_Driver/Inc/stm32f0xx_ll_bus.h **** #endif /*CAN*/
 140:Drivers/STM32F0xx_HAL_Driver/Inc/stm32f0xx_ll_bus.h **** #if defined(CRS)
 141:Drivers/STM32F0xx_HAL_Driver/Inc/stm32f0xx_ll_bus.h **** #define LL_APB1_GRP1_PERIPH_CRS            RCC_APB1ENR_CRSEN
 142:Drivers/STM32F0xx_HAL_Driver/Inc/stm32f0xx_ll_bus.h **** #endif /*CRS*/
 143:Drivers/STM32F0xx_HAL_Driver/Inc/stm32f0xx_ll_bus.h **** #define LL_APB1_GRP1_PERIPH_PWR            RCC_APB1ENR_PWREN
 144:Drivers/STM32F0xx_HAL_Driver/Inc/stm32f0xx_ll_bus.h **** #if defined(DAC)
 145:Drivers/STM32F0xx_HAL_Driver/Inc/stm32f0xx_ll_bus.h **** #define LL_APB1_GRP1_PERIPH_DAC1           RCC_APB1ENR_DACEN
 146:Drivers/STM32F0xx_HAL_Driver/Inc/stm32f0xx_ll_bus.h **** #endif /*DAC*/
 147:Drivers/STM32F0xx_HAL_Driver/Inc/stm32f0xx_ll_bus.h **** #if defined(CEC)
 148:Drivers/STM32F0xx_HAL_Driver/Inc/stm32f0xx_ll_bus.h **** #define LL_APB1_GRP1_PERIPH_CEC            RCC_APB1ENR_CECEN
 149:Drivers/STM32F0xx_HAL_Driver/Inc/stm32f0xx_ll_bus.h **** #endif /*CEC*/
 150:Drivers/STM32F0xx_HAL_Driver/Inc/stm32f0xx_ll_bus.h **** /**
 151:Drivers/STM32F0xx_HAL_Driver/Inc/stm32f0xx_ll_bus.h ****   * @}
 152:Drivers/STM32F0xx_HAL_Driver/Inc/stm32f0xx_ll_bus.h ****   */
 153:Drivers/STM32F0xx_HAL_Driver/Inc/stm32f0xx_ll_bus.h **** 
 154:Drivers/STM32F0xx_HAL_Driver/Inc/stm32f0xx_ll_bus.h **** /** @defgroup BUS_LL_EC_APB1_GRP2_PERIPH  APB1 GRP2 PERIPH
 155:Drivers/STM32F0xx_HAL_Driver/Inc/stm32f0xx_ll_bus.h ****   * @{
 156:Drivers/STM32F0xx_HAL_Driver/Inc/stm32f0xx_ll_bus.h ****   */
 157:Drivers/STM32F0xx_HAL_Driver/Inc/stm32f0xx_ll_bus.h **** #define LL_APB1_GRP2_PERIPH_ALL            (uint32_t)0xFFFFFFFFU
 158:Drivers/STM32F0xx_HAL_Driver/Inc/stm32f0xx_ll_bus.h **** #define LL_APB1_GRP2_PERIPH_SYSCFG         RCC_APB2ENR_SYSCFGEN
 159:Drivers/STM32F0xx_HAL_Driver/Inc/stm32f0xx_ll_bus.h **** #define LL_APB1_GRP2_PERIPH_ADC1           RCC_APB2ENR_ADC1EN
 160:Drivers/STM32F0xx_HAL_Driver/Inc/stm32f0xx_ll_bus.h **** #if defined(USART8)
 161:Drivers/STM32F0xx_HAL_Driver/Inc/stm32f0xx_ll_bus.h **** #define LL_APB1_GRP2_PERIPH_USART8         RCC_APB2ENR_USART8EN
 162:Drivers/STM32F0xx_HAL_Driver/Inc/stm32f0xx_ll_bus.h **** #endif /*USART8*/
 163:Drivers/STM32F0xx_HAL_Driver/Inc/stm32f0xx_ll_bus.h **** #if defined(USART7)
 164:Drivers/STM32F0xx_HAL_Driver/Inc/stm32f0xx_ll_bus.h **** #define LL_APB1_GRP2_PERIPH_USART7         RCC_APB2ENR_USART7EN
 165:Drivers/STM32F0xx_HAL_Driver/Inc/stm32f0xx_ll_bus.h **** #endif /*USART7*/
 166:Drivers/STM32F0xx_HAL_Driver/Inc/stm32f0xx_ll_bus.h **** #if defined(USART6)
 167:Drivers/STM32F0xx_HAL_Driver/Inc/stm32f0xx_ll_bus.h **** #define LL_APB1_GRP2_PERIPH_USART6         RCC_APB2ENR_USART6EN
 168:Drivers/STM32F0xx_HAL_Driver/Inc/stm32f0xx_ll_bus.h **** #endif /*USART6*/
ARM GAS  /tmp/ccfHzE7k.s 			page 6


 169:Drivers/STM32F0xx_HAL_Driver/Inc/stm32f0xx_ll_bus.h **** #define LL_APB1_GRP2_PERIPH_TIM1           RCC_APB2ENR_TIM1EN
 170:Drivers/STM32F0xx_HAL_Driver/Inc/stm32f0xx_ll_bus.h **** #define LL_APB1_GRP2_PERIPH_SPI1           RCC_APB2ENR_SPI1EN
 171:Drivers/STM32F0xx_HAL_Driver/Inc/stm32f0xx_ll_bus.h **** #define LL_APB1_GRP2_PERIPH_USART1         RCC_APB2ENR_USART1EN
 172:Drivers/STM32F0xx_HAL_Driver/Inc/stm32f0xx_ll_bus.h **** #if defined(TIM15)
 173:Drivers/STM32F0xx_HAL_Driver/Inc/stm32f0xx_ll_bus.h **** #define LL_APB1_GRP2_PERIPH_TIM15          RCC_APB2ENR_TIM15EN
 174:Drivers/STM32F0xx_HAL_Driver/Inc/stm32f0xx_ll_bus.h **** #endif /*TIM15*/
 175:Drivers/STM32F0xx_HAL_Driver/Inc/stm32f0xx_ll_bus.h **** #define LL_APB1_GRP2_PERIPH_TIM16          RCC_APB2ENR_TIM16EN
 176:Drivers/STM32F0xx_HAL_Driver/Inc/stm32f0xx_ll_bus.h **** #define LL_APB1_GRP2_PERIPH_TIM17          RCC_APB2ENR_TIM17EN
 177:Drivers/STM32F0xx_HAL_Driver/Inc/stm32f0xx_ll_bus.h **** #define LL_APB1_GRP2_PERIPH_DBGMCU         RCC_APB2ENR_DBGMCUEN
 178:Drivers/STM32F0xx_HAL_Driver/Inc/stm32f0xx_ll_bus.h **** /**
 179:Drivers/STM32F0xx_HAL_Driver/Inc/stm32f0xx_ll_bus.h ****   * @}
 180:Drivers/STM32F0xx_HAL_Driver/Inc/stm32f0xx_ll_bus.h ****   */
 181:Drivers/STM32F0xx_HAL_Driver/Inc/stm32f0xx_ll_bus.h **** 
 182:Drivers/STM32F0xx_HAL_Driver/Inc/stm32f0xx_ll_bus.h **** /**
 183:Drivers/STM32F0xx_HAL_Driver/Inc/stm32f0xx_ll_bus.h ****   * @}
 184:Drivers/STM32F0xx_HAL_Driver/Inc/stm32f0xx_ll_bus.h ****   */
 185:Drivers/STM32F0xx_HAL_Driver/Inc/stm32f0xx_ll_bus.h **** 
 186:Drivers/STM32F0xx_HAL_Driver/Inc/stm32f0xx_ll_bus.h **** /* Exported macro ------------------------------------------------------------*/
 187:Drivers/STM32F0xx_HAL_Driver/Inc/stm32f0xx_ll_bus.h **** /* Exported functions --------------------------------------------------------*/
 188:Drivers/STM32F0xx_HAL_Driver/Inc/stm32f0xx_ll_bus.h **** /** @defgroup BUS_LL_Exported_Functions BUS Exported Functions
 189:Drivers/STM32F0xx_HAL_Driver/Inc/stm32f0xx_ll_bus.h ****   * @{
 190:Drivers/STM32F0xx_HAL_Driver/Inc/stm32f0xx_ll_bus.h ****   */
 191:Drivers/STM32F0xx_HAL_Driver/Inc/stm32f0xx_ll_bus.h **** 
 192:Drivers/STM32F0xx_HAL_Driver/Inc/stm32f0xx_ll_bus.h **** /** @defgroup BUS_LL_EF_AHB1 AHB1
 193:Drivers/STM32F0xx_HAL_Driver/Inc/stm32f0xx_ll_bus.h ****   * @{
 194:Drivers/STM32F0xx_HAL_Driver/Inc/stm32f0xx_ll_bus.h ****   */
 195:Drivers/STM32F0xx_HAL_Driver/Inc/stm32f0xx_ll_bus.h **** 
 196:Drivers/STM32F0xx_HAL_Driver/Inc/stm32f0xx_ll_bus.h **** /**
 197:Drivers/STM32F0xx_HAL_Driver/Inc/stm32f0xx_ll_bus.h ****   * @brief  Enable AHB1 peripherals clock.
 198:Drivers/STM32F0xx_HAL_Driver/Inc/stm32f0xx_ll_bus.h ****   * @rmtoll AHBENR       DMA1EN        LL_AHB1_GRP1_EnableClock\n
 199:Drivers/STM32F0xx_HAL_Driver/Inc/stm32f0xx_ll_bus.h ****   *         AHBENR       DMA2EN        LL_AHB1_GRP1_EnableClock\n
 200:Drivers/STM32F0xx_HAL_Driver/Inc/stm32f0xx_ll_bus.h ****   *         AHBENR       SRAMEN        LL_AHB1_GRP1_EnableClock\n
 201:Drivers/STM32F0xx_HAL_Driver/Inc/stm32f0xx_ll_bus.h ****   *         AHBENR       FLITFEN       LL_AHB1_GRP1_EnableClock\n
 202:Drivers/STM32F0xx_HAL_Driver/Inc/stm32f0xx_ll_bus.h ****   *         AHBENR       CRCEN         LL_AHB1_GRP1_EnableClock\n
 203:Drivers/STM32F0xx_HAL_Driver/Inc/stm32f0xx_ll_bus.h ****   *         AHBENR       GPIOAEN       LL_AHB1_GRP1_EnableClock\n
 204:Drivers/STM32F0xx_HAL_Driver/Inc/stm32f0xx_ll_bus.h ****   *         AHBENR       GPIOBEN       LL_AHB1_GRP1_EnableClock\n
 205:Drivers/STM32F0xx_HAL_Driver/Inc/stm32f0xx_ll_bus.h ****   *         AHBENR       GPIOCEN       LL_AHB1_GRP1_EnableClock\n
 206:Drivers/STM32F0xx_HAL_Driver/Inc/stm32f0xx_ll_bus.h ****   *         AHBENR       GPIODEN       LL_AHB1_GRP1_EnableClock\n
 207:Drivers/STM32F0xx_HAL_Driver/Inc/stm32f0xx_ll_bus.h ****   *         AHBENR       GPIOEEN       LL_AHB1_GRP1_EnableClock\n
 208:Drivers/STM32F0xx_HAL_Driver/Inc/stm32f0xx_ll_bus.h ****   *         AHBENR       GPIOFEN       LL_AHB1_GRP1_EnableClock\n
 209:Drivers/STM32F0xx_HAL_Driver/Inc/stm32f0xx_ll_bus.h ****   *         AHBENR       TSCEN         LL_AHB1_GRP1_EnableClock
 210:Drivers/STM32F0xx_HAL_Driver/Inc/stm32f0xx_ll_bus.h ****   * @param  Periphs This parameter can be a combination of the following values:
 211:Drivers/STM32F0xx_HAL_Driver/Inc/stm32f0xx_ll_bus.h ****   *         @arg @ref LL_AHB1_GRP1_PERIPH_DMA1
 212:Drivers/STM32F0xx_HAL_Driver/Inc/stm32f0xx_ll_bus.h ****   *         @arg @ref LL_AHB1_GRP1_PERIPH_DMA2 (*)
 213:Drivers/STM32F0xx_HAL_Driver/Inc/stm32f0xx_ll_bus.h ****   *         @arg @ref LL_AHB1_GRP1_PERIPH_SRAM
 214:Drivers/STM32F0xx_HAL_Driver/Inc/stm32f0xx_ll_bus.h ****   *         @arg @ref LL_AHB1_GRP1_PERIPH_FLASH
 215:Drivers/STM32F0xx_HAL_Driver/Inc/stm32f0xx_ll_bus.h ****   *         @arg @ref LL_AHB1_GRP1_PERIPH_CRC
 216:Drivers/STM32F0xx_HAL_Driver/Inc/stm32f0xx_ll_bus.h ****   *         @arg @ref LL_AHB1_GRP1_PERIPH_GPIOA
 217:Drivers/STM32F0xx_HAL_Driver/Inc/stm32f0xx_ll_bus.h ****   *         @arg @ref LL_AHB1_GRP1_PERIPH_GPIOB
 218:Drivers/STM32F0xx_HAL_Driver/Inc/stm32f0xx_ll_bus.h ****   *         @arg @ref LL_AHB1_GRP1_PERIPH_GPIOC
 219:Drivers/STM32F0xx_HAL_Driver/Inc/stm32f0xx_ll_bus.h ****   *         @arg @ref LL_AHB1_GRP1_PERIPH_GPIOD (*)
 220:Drivers/STM32F0xx_HAL_Driver/Inc/stm32f0xx_ll_bus.h ****   *         @arg @ref LL_AHB1_GRP1_PERIPH_GPIOE (*)
 221:Drivers/STM32F0xx_HAL_Driver/Inc/stm32f0xx_ll_bus.h ****   *         @arg @ref LL_AHB1_GRP1_PERIPH_GPIOF
 222:Drivers/STM32F0xx_HAL_Driver/Inc/stm32f0xx_ll_bus.h ****   *         @arg @ref LL_AHB1_GRP1_PERIPH_TSC (*)
 223:Drivers/STM32F0xx_HAL_Driver/Inc/stm32f0xx_ll_bus.h ****   *
 224:Drivers/STM32F0xx_HAL_Driver/Inc/stm32f0xx_ll_bus.h ****   *         (*) value not defined in all devices.
 225:Drivers/STM32F0xx_HAL_Driver/Inc/stm32f0xx_ll_bus.h ****   * @retval None
ARM GAS  /tmp/ccfHzE7k.s 			page 7


 226:Drivers/STM32F0xx_HAL_Driver/Inc/stm32f0xx_ll_bus.h **** */
 227:Drivers/STM32F0xx_HAL_Driver/Inc/stm32f0xx_ll_bus.h **** __STATIC_INLINE void LL_AHB1_GRP1_EnableClock(uint32_t Periphs)
 228:Drivers/STM32F0xx_HAL_Driver/Inc/stm32f0xx_ll_bus.h **** {
 229:Drivers/STM32F0xx_HAL_Driver/Inc/stm32f0xx_ll_bus.h ****   __IO uint32_t tmpreg;
 230:Drivers/STM32F0xx_HAL_Driver/Inc/stm32f0xx_ll_bus.h ****   SET_BIT(RCC->AHBENR, Periphs);
  73              		.loc 2 230 0
  74 0028 8020     		movs	r0, #128
  75 002a 404B     		ldr	r3, .L2
  76 002c 0003     		lsls	r0, r0, #12
  77 002e 5969     		ldr	r1, [r3, #20]
  78              	.LBE25:
  79              	.LBE24:
  80              	.LBB29:
  81              	.LBB30:
  82              		.file 3 "Drivers/STM32F0xx_HAL_Driver/Inc/stm32f0xx_ll_gpio.h"
   1:Drivers/STM32F0xx_HAL_Driver/Inc/stm32f0xx_ll_gpio.h **** /**
   2:Drivers/STM32F0xx_HAL_Driver/Inc/stm32f0xx_ll_gpio.h ****   ******************************************************************************
   3:Drivers/STM32F0xx_HAL_Driver/Inc/stm32f0xx_ll_gpio.h ****   * @file    stm32f0xx_ll_gpio.h
   4:Drivers/STM32F0xx_HAL_Driver/Inc/stm32f0xx_ll_gpio.h ****   * @author  MCD Application Team
   5:Drivers/STM32F0xx_HAL_Driver/Inc/stm32f0xx_ll_gpio.h ****   * @brief   Header file of GPIO LL module.
   6:Drivers/STM32F0xx_HAL_Driver/Inc/stm32f0xx_ll_gpio.h ****   ******************************************************************************
   7:Drivers/STM32F0xx_HAL_Driver/Inc/stm32f0xx_ll_gpio.h ****   * @attention
   8:Drivers/STM32F0xx_HAL_Driver/Inc/stm32f0xx_ll_gpio.h ****   *
   9:Drivers/STM32F0xx_HAL_Driver/Inc/stm32f0xx_ll_gpio.h ****   * <h2><center>&copy; Copyright (c) 2016 STMicroelectronics.
  10:Drivers/STM32F0xx_HAL_Driver/Inc/stm32f0xx_ll_gpio.h ****   * All rights reserved.</center></h2>
  11:Drivers/STM32F0xx_HAL_Driver/Inc/stm32f0xx_ll_gpio.h ****   *
  12:Drivers/STM32F0xx_HAL_Driver/Inc/stm32f0xx_ll_gpio.h ****   * This software component is licensed by ST under BSD 3-Clause license,
  13:Drivers/STM32F0xx_HAL_Driver/Inc/stm32f0xx_ll_gpio.h ****   * the "License"; You may not use this file except in compliance with the
  14:Drivers/STM32F0xx_HAL_Driver/Inc/stm32f0xx_ll_gpio.h ****   * License. You may obtain a copy of the License at:
  15:Drivers/STM32F0xx_HAL_Driver/Inc/stm32f0xx_ll_gpio.h ****   *                        opensource.org/licenses/BSD-3-Clause
  16:Drivers/STM32F0xx_HAL_Driver/Inc/stm32f0xx_ll_gpio.h ****   *
  17:Drivers/STM32F0xx_HAL_Driver/Inc/stm32f0xx_ll_gpio.h ****   ******************************************************************************
  18:Drivers/STM32F0xx_HAL_Driver/Inc/stm32f0xx_ll_gpio.h ****   */
  19:Drivers/STM32F0xx_HAL_Driver/Inc/stm32f0xx_ll_gpio.h **** 
  20:Drivers/STM32F0xx_HAL_Driver/Inc/stm32f0xx_ll_gpio.h **** /* Define to prevent recursive inclusion -------------------------------------*/
  21:Drivers/STM32F0xx_HAL_Driver/Inc/stm32f0xx_ll_gpio.h **** #ifndef __STM32F0xx_LL_GPIO_H
  22:Drivers/STM32F0xx_HAL_Driver/Inc/stm32f0xx_ll_gpio.h **** #define __STM32F0xx_LL_GPIO_H
  23:Drivers/STM32F0xx_HAL_Driver/Inc/stm32f0xx_ll_gpio.h **** 
  24:Drivers/STM32F0xx_HAL_Driver/Inc/stm32f0xx_ll_gpio.h **** #ifdef __cplusplus
  25:Drivers/STM32F0xx_HAL_Driver/Inc/stm32f0xx_ll_gpio.h **** extern "C" {
  26:Drivers/STM32F0xx_HAL_Driver/Inc/stm32f0xx_ll_gpio.h **** #endif
  27:Drivers/STM32F0xx_HAL_Driver/Inc/stm32f0xx_ll_gpio.h **** 
  28:Drivers/STM32F0xx_HAL_Driver/Inc/stm32f0xx_ll_gpio.h **** /* Includes ------------------------------------------------------------------*/
  29:Drivers/STM32F0xx_HAL_Driver/Inc/stm32f0xx_ll_gpio.h **** #include "stm32f0xx.h"
  30:Drivers/STM32F0xx_HAL_Driver/Inc/stm32f0xx_ll_gpio.h **** 
  31:Drivers/STM32F0xx_HAL_Driver/Inc/stm32f0xx_ll_gpio.h **** /** @addtogroup STM32F0xx_LL_Driver
  32:Drivers/STM32F0xx_HAL_Driver/Inc/stm32f0xx_ll_gpio.h ****   * @{
  33:Drivers/STM32F0xx_HAL_Driver/Inc/stm32f0xx_ll_gpio.h ****   */
  34:Drivers/STM32F0xx_HAL_Driver/Inc/stm32f0xx_ll_gpio.h **** 
  35:Drivers/STM32F0xx_HAL_Driver/Inc/stm32f0xx_ll_gpio.h **** #if defined (GPIOA) || defined (GPIOB) || defined (GPIOC) || defined (GPIOD) || defined (GPIOE) || 
  36:Drivers/STM32F0xx_HAL_Driver/Inc/stm32f0xx_ll_gpio.h **** 
  37:Drivers/STM32F0xx_HAL_Driver/Inc/stm32f0xx_ll_gpio.h **** /** @defgroup GPIO_LL GPIO
  38:Drivers/STM32F0xx_HAL_Driver/Inc/stm32f0xx_ll_gpio.h ****   * @{
  39:Drivers/STM32F0xx_HAL_Driver/Inc/stm32f0xx_ll_gpio.h ****   */
  40:Drivers/STM32F0xx_HAL_Driver/Inc/stm32f0xx_ll_gpio.h **** 
  41:Drivers/STM32F0xx_HAL_Driver/Inc/stm32f0xx_ll_gpio.h **** /* Private types -------------------------------------------------------------*/
  42:Drivers/STM32F0xx_HAL_Driver/Inc/stm32f0xx_ll_gpio.h **** /* Private variables ---------------------------------------------------------*/
ARM GAS  /tmp/ccfHzE7k.s 			page 8


  43:Drivers/STM32F0xx_HAL_Driver/Inc/stm32f0xx_ll_gpio.h **** /* Private constants ---------------------------------------------------------*/
  44:Drivers/STM32F0xx_HAL_Driver/Inc/stm32f0xx_ll_gpio.h **** /* Private macros ------------------------------------------------------------*/
  45:Drivers/STM32F0xx_HAL_Driver/Inc/stm32f0xx_ll_gpio.h **** #if defined(USE_FULL_LL_DRIVER)
  46:Drivers/STM32F0xx_HAL_Driver/Inc/stm32f0xx_ll_gpio.h **** /** @defgroup GPIO_LL_Private_Macros GPIO Private Macros
  47:Drivers/STM32F0xx_HAL_Driver/Inc/stm32f0xx_ll_gpio.h ****   * @{
  48:Drivers/STM32F0xx_HAL_Driver/Inc/stm32f0xx_ll_gpio.h ****   */
  49:Drivers/STM32F0xx_HAL_Driver/Inc/stm32f0xx_ll_gpio.h **** 
  50:Drivers/STM32F0xx_HAL_Driver/Inc/stm32f0xx_ll_gpio.h **** /**
  51:Drivers/STM32F0xx_HAL_Driver/Inc/stm32f0xx_ll_gpio.h ****   * @}
  52:Drivers/STM32F0xx_HAL_Driver/Inc/stm32f0xx_ll_gpio.h ****   */
  53:Drivers/STM32F0xx_HAL_Driver/Inc/stm32f0xx_ll_gpio.h **** #endif /*USE_FULL_LL_DRIVER*/
  54:Drivers/STM32F0xx_HAL_Driver/Inc/stm32f0xx_ll_gpio.h **** 
  55:Drivers/STM32F0xx_HAL_Driver/Inc/stm32f0xx_ll_gpio.h **** /* Exported types ------------------------------------------------------------*/
  56:Drivers/STM32F0xx_HAL_Driver/Inc/stm32f0xx_ll_gpio.h **** #if defined(USE_FULL_LL_DRIVER)
  57:Drivers/STM32F0xx_HAL_Driver/Inc/stm32f0xx_ll_gpio.h **** /** @defgroup GPIO_LL_ES_INIT GPIO Exported Init structures
  58:Drivers/STM32F0xx_HAL_Driver/Inc/stm32f0xx_ll_gpio.h ****   * @{
  59:Drivers/STM32F0xx_HAL_Driver/Inc/stm32f0xx_ll_gpio.h ****   */
  60:Drivers/STM32F0xx_HAL_Driver/Inc/stm32f0xx_ll_gpio.h **** 
  61:Drivers/STM32F0xx_HAL_Driver/Inc/stm32f0xx_ll_gpio.h **** /**
  62:Drivers/STM32F0xx_HAL_Driver/Inc/stm32f0xx_ll_gpio.h ****   * @brief LL GPIO Init Structure definition
  63:Drivers/STM32F0xx_HAL_Driver/Inc/stm32f0xx_ll_gpio.h ****   */
  64:Drivers/STM32F0xx_HAL_Driver/Inc/stm32f0xx_ll_gpio.h **** typedef struct
  65:Drivers/STM32F0xx_HAL_Driver/Inc/stm32f0xx_ll_gpio.h **** {
  66:Drivers/STM32F0xx_HAL_Driver/Inc/stm32f0xx_ll_gpio.h ****   uint32_t Pin;          /*!< Specifies the GPIO pins to be configured.
  67:Drivers/STM32F0xx_HAL_Driver/Inc/stm32f0xx_ll_gpio.h ****                               This parameter can be any value of @ref GPIO_LL_EC_PIN */
  68:Drivers/STM32F0xx_HAL_Driver/Inc/stm32f0xx_ll_gpio.h **** 
  69:Drivers/STM32F0xx_HAL_Driver/Inc/stm32f0xx_ll_gpio.h ****   uint32_t Mode;         /*!< Specifies the operating mode for the selected pins.
  70:Drivers/STM32F0xx_HAL_Driver/Inc/stm32f0xx_ll_gpio.h ****                               This parameter can be a value of @ref GPIO_LL_EC_MODE.
  71:Drivers/STM32F0xx_HAL_Driver/Inc/stm32f0xx_ll_gpio.h **** 
  72:Drivers/STM32F0xx_HAL_Driver/Inc/stm32f0xx_ll_gpio.h ****                               GPIO HW configuration can be modified afterwards using unitary functi
  73:Drivers/STM32F0xx_HAL_Driver/Inc/stm32f0xx_ll_gpio.h **** 
  74:Drivers/STM32F0xx_HAL_Driver/Inc/stm32f0xx_ll_gpio.h ****   uint32_t Speed;        /*!< Specifies the speed for the selected pins.
  75:Drivers/STM32F0xx_HAL_Driver/Inc/stm32f0xx_ll_gpio.h ****                               This parameter can be a value of @ref GPIO_LL_EC_SPEED.
  76:Drivers/STM32F0xx_HAL_Driver/Inc/stm32f0xx_ll_gpio.h **** 
  77:Drivers/STM32F0xx_HAL_Driver/Inc/stm32f0xx_ll_gpio.h ****                               GPIO HW configuration can be modified afterwards using unitary functi
  78:Drivers/STM32F0xx_HAL_Driver/Inc/stm32f0xx_ll_gpio.h **** 
  79:Drivers/STM32F0xx_HAL_Driver/Inc/stm32f0xx_ll_gpio.h ****   uint32_t OutputType;   /*!< Specifies the operating output type for the selected pins.
  80:Drivers/STM32F0xx_HAL_Driver/Inc/stm32f0xx_ll_gpio.h ****                               This parameter can be a value of @ref GPIO_LL_EC_OUTPUT.
  81:Drivers/STM32F0xx_HAL_Driver/Inc/stm32f0xx_ll_gpio.h **** 
  82:Drivers/STM32F0xx_HAL_Driver/Inc/stm32f0xx_ll_gpio.h ****                               GPIO HW configuration can be modified afterwards using unitary functi
  83:Drivers/STM32F0xx_HAL_Driver/Inc/stm32f0xx_ll_gpio.h **** 
  84:Drivers/STM32F0xx_HAL_Driver/Inc/stm32f0xx_ll_gpio.h ****   uint32_t Pull;         /*!< Specifies the operating Pull-up/Pull down for the selected pins.
  85:Drivers/STM32F0xx_HAL_Driver/Inc/stm32f0xx_ll_gpio.h ****                               This parameter can be a value of @ref GPIO_LL_EC_PULL.
  86:Drivers/STM32F0xx_HAL_Driver/Inc/stm32f0xx_ll_gpio.h **** 
  87:Drivers/STM32F0xx_HAL_Driver/Inc/stm32f0xx_ll_gpio.h ****                               GPIO HW configuration can be modified afterwards using unitary functi
  88:Drivers/STM32F0xx_HAL_Driver/Inc/stm32f0xx_ll_gpio.h **** 
  89:Drivers/STM32F0xx_HAL_Driver/Inc/stm32f0xx_ll_gpio.h ****   uint32_t Alternate;    /*!< Specifies the Peripheral to be connected to the selected pins.
  90:Drivers/STM32F0xx_HAL_Driver/Inc/stm32f0xx_ll_gpio.h ****                               This parameter can be a value of @ref GPIO_LL_EC_AF.
  91:Drivers/STM32F0xx_HAL_Driver/Inc/stm32f0xx_ll_gpio.h **** 
  92:Drivers/STM32F0xx_HAL_Driver/Inc/stm32f0xx_ll_gpio.h ****                               GPIO HW configuration can be modified afterwards using unitary functi
  93:Drivers/STM32F0xx_HAL_Driver/Inc/stm32f0xx_ll_gpio.h **** } LL_GPIO_InitTypeDef;
  94:Drivers/STM32F0xx_HAL_Driver/Inc/stm32f0xx_ll_gpio.h **** 
  95:Drivers/STM32F0xx_HAL_Driver/Inc/stm32f0xx_ll_gpio.h **** /**
  96:Drivers/STM32F0xx_HAL_Driver/Inc/stm32f0xx_ll_gpio.h ****   * @}
  97:Drivers/STM32F0xx_HAL_Driver/Inc/stm32f0xx_ll_gpio.h ****   */
  98:Drivers/STM32F0xx_HAL_Driver/Inc/stm32f0xx_ll_gpio.h **** #endif /* USE_FULL_LL_DRIVER */
  99:Drivers/STM32F0xx_HAL_Driver/Inc/stm32f0xx_ll_gpio.h **** 
ARM GAS  /tmp/ccfHzE7k.s 			page 9


 100:Drivers/STM32F0xx_HAL_Driver/Inc/stm32f0xx_ll_gpio.h **** /* Exported constants --------------------------------------------------------*/
 101:Drivers/STM32F0xx_HAL_Driver/Inc/stm32f0xx_ll_gpio.h **** /** @defgroup GPIO_LL_Exported_Constants GPIO Exported Constants
 102:Drivers/STM32F0xx_HAL_Driver/Inc/stm32f0xx_ll_gpio.h ****   * @{
 103:Drivers/STM32F0xx_HAL_Driver/Inc/stm32f0xx_ll_gpio.h ****   */
 104:Drivers/STM32F0xx_HAL_Driver/Inc/stm32f0xx_ll_gpio.h **** 
 105:Drivers/STM32F0xx_HAL_Driver/Inc/stm32f0xx_ll_gpio.h **** /** @defgroup GPIO_LL_EC_PIN PIN
 106:Drivers/STM32F0xx_HAL_Driver/Inc/stm32f0xx_ll_gpio.h ****   * @{
 107:Drivers/STM32F0xx_HAL_Driver/Inc/stm32f0xx_ll_gpio.h ****   */
 108:Drivers/STM32F0xx_HAL_Driver/Inc/stm32f0xx_ll_gpio.h **** #define LL_GPIO_PIN_0                      GPIO_BSRR_BS_0 /*!< Select pin 0 */
 109:Drivers/STM32F0xx_HAL_Driver/Inc/stm32f0xx_ll_gpio.h **** #define LL_GPIO_PIN_1                      GPIO_BSRR_BS_1 /*!< Select pin 1 */
 110:Drivers/STM32F0xx_HAL_Driver/Inc/stm32f0xx_ll_gpio.h **** #define LL_GPIO_PIN_2                      GPIO_BSRR_BS_2 /*!< Select pin 2 */
 111:Drivers/STM32F0xx_HAL_Driver/Inc/stm32f0xx_ll_gpio.h **** #define LL_GPIO_PIN_3                      GPIO_BSRR_BS_3 /*!< Select pin 3 */
 112:Drivers/STM32F0xx_HAL_Driver/Inc/stm32f0xx_ll_gpio.h **** #define LL_GPIO_PIN_4                      GPIO_BSRR_BS_4 /*!< Select pin 4 */
 113:Drivers/STM32F0xx_HAL_Driver/Inc/stm32f0xx_ll_gpio.h **** #define LL_GPIO_PIN_5                      GPIO_BSRR_BS_5 /*!< Select pin 5 */
 114:Drivers/STM32F0xx_HAL_Driver/Inc/stm32f0xx_ll_gpio.h **** #define LL_GPIO_PIN_6                      GPIO_BSRR_BS_6 /*!< Select pin 6 */
 115:Drivers/STM32F0xx_HAL_Driver/Inc/stm32f0xx_ll_gpio.h **** #define LL_GPIO_PIN_7                      GPIO_BSRR_BS_7 /*!< Select pin 7 */
 116:Drivers/STM32F0xx_HAL_Driver/Inc/stm32f0xx_ll_gpio.h **** #define LL_GPIO_PIN_8                      GPIO_BSRR_BS_8 /*!< Select pin 8 */
 117:Drivers/STM32F0xx_HAL_Driver/Inc/stm32f0xx_ll_gpio.h **** #define LL_GPIO_PIN_9                      GPIO_BSRR_BS_9 /*!< Select pin 9 */
 118:Drivers/STM32F0xx_HAL_Driver/Inc/stm32f0xx_ll_gpio.h **** #define LL_GPIO_PIN_10                     GPIO_BSRR_BS_10 /*!< Select pin 10 */
 119:Drivers/STM32F0xx_HAL_Driver/Inc/stm32f0xx_ll_gpio.h **** #define LL_GPIO_PIN_11                     GPIO_BSRR_BS_11 /*!< Select pin 11 */
 120:Drivers/STM32F0xx_HAL_Driver/Inc/stm32f0xx_ll_gpio.h **** #define LL_GPIO_PIN_12                     GPIO_BSRR_BS_12 /*!< Select pin 12 */
 121:Drivers/STM32F0xx_HAL_Driver/Inc/stm32f0xx_ll_gpio.h **** #define LL_GPIO_PIN_13                     GPIO_BSRR_BS_13 /*!< Select pin 13 */
 122:Drivers/STM32F0xx_HAL_Driver/Inc/stm32f0xx_ll_gpio.h **** #define LL_GPIO_PIN_14                     GPIO_BSRR_BS_14 /*!< Select pin 14 */
 123:Drivers/STM32F0xx_HAL_Driver/Inc/stm32f0xx_ll_gpio.h **** #define LL_GPIO_PIN_15                     GPIO_BSRR_BS_15 /*!< Select pin 15 */
 124:Drivers/STM32F0xx_HAL_Driver/Inc/stm32f0xx_ll_gpio.h **** #define LL_GPIO_PIN_ALL                    (GPIO_BSRR_BS_0 | GPIO_BSRR_BS_1  | GPIO_BSRR_BS_2  | \
 125:Drivers/STM32F0xx_HAL_Driver/Inc/stm32f0xx_ll_gpio.h ****                                            GPIO_BSRR_BS_3  | GPIO_BSRR_BS_4  | GPIO_BSRR_BS_5  | \
 126:Drivers/STM32F0xx_HAL_Driver/Inc/stm32f0xx_ll_gpio.h ****                                            GPIO_BSRR_BS_6  | GPIO_BSRR_BS_7  | GPIO_BSRR_BS_8  | \
 127:Drivers/STM32F0xx_HAL_Driver/Inc/stm32f0xx_ll_gpio.h ****                                            GPIO_BSRR_BS_9  | GPIO_BSRR_BS_10 | GPIO_BSRR_BS_11 | \
 128:Drivers/STM32F0xx_HAL_Driver/Inc/stm32f0xx_ll_gpio.h ****                                            GPIO_BSRR_BS_12 | GPIO_BSRR_BS_13 | GPIO_BSRR_BS_14 | \
 129:Drivers/STM32F0xx_HAL_Driver/Inc/stm32f0xx_ll_gpio.h ****                                            GPIO_BSRR_BS_15) /*!< Select all pins */
 130:Drivers/STM32F0xx_HAL_Driver/Inc/stm32f0xx_ll_gpio.h **** /**
 131:Drivers/STM32F0xx_HAL_Driver/Inc/stm32f0xx_ll_gpio.h ****   * @}
 132:Drivers/STM32F0xx_HAL_Driver/Inc/stm32f0xx_ll_gpio.h ****   */
 133:Drivers/STM32F0xx_HAL_Driver/Inc/stm32f0xx_ll_gpio.h **** 
 134:Drivers/STM32F0xx_HAL_Driver/Inc/stm32f0xx_ll_gpio.h **** /** @defgroup GPIO_LL_EC_MODE Mode
 135:Drivers/STM32F0xx_HAL_Driver/Inc/stm32f0xx_ll_gpio.h ****   * @{
 136:Drivers/STM32F0xx_HAL_Driver/Inc/stm32f0xx_ll_gpio.h ****   */
 137:Drivers/STM32F0xx_HAL_Driver/Inc/stm32f0xx_ll_gpio.h **** #define LL_GPIO_MODE_INPUT                 (0x00000000U) /*!< Select input mode */
 138:Drivers/STM32F0xx_HAL_Driver/Inc/stm32f0xx_ll_gpio.h **** #define LL_GPIO_MODE_OUTPUT                GPIO_MODER_MODER0_0  /*!< Select output mode */
 139:Drivers/STM32F0xx_HAL_Driver/Inc/stm32f0xx_ll_gpio.h **** #define LL_GPIO_MODE_ALTERNATE             GPIO_MODER_MODER0_1  /*!< Select alternate function mode
 140:Drivers/STM32F0xx_HAL_Driver/Inc/stm32f0xx_ll_gpio.h **** #define LL_GPIO_MODE_ANALOG                GPIO_MODER_MODER0    /*!< Select analog mode */
 141:Drivers/STM32F0xx_HAL_Driver/Inc/stm32f0xx_ll_gpio.h **** /**
 142:Drivers/STM32F0xx_HAL_Driver/Inc/stm32f0xx_ll_gpio.h ****   * @}
 143:Drivers/STM32F0xx_HAL_Driver/Inc/stm32f0xx_ll_gpio.h ****   */
 144:Drivers/STM32F0xx_HAL_Driver/Inc/stm32f0xx_ll_gpio.h **** 
 145:Drivers/STM32F0xx_HAL_Driver/Inc/stm32f0xx_ll_gpio.h **** /** @defgroup GPIO_LL_EC_OUTPUT Output Type
 146:Drivers/STM32F0xx_HAL_Driver/Inc/stm32f0xx_ll_gpio.h ****   * @{
 147:Drivers/STM32F0xx_HAL_Driver/Inc/stm32f0xx_ll_gpio.h ****   */
 148:Drivers/STM32F0xx_HAL_Driver/Inc/stm32f0xx_ll_gpio.h **** #define LL_GPIO_OUTPUT_PUSHPULL            (0x00000000U) /*!< Select push-pull as output type */
 149:Drivers/STM32F0xx_HAL_Driver/Inc/stm32f0xx_ll_gpio.h **** #define LL_GPIO_OUTPUT_OPENDRAIN           GPIO_OTYPER_OT_0 /*!< Select open-drain as output type *
 150:Drivers/STM32F0xx_HAL_Driver/Inc/stm32f0xx_ll_gpio.h **** /**
 151:Drivers/STM32F0xx_HAL_Driver/Inc/stm32f0xx_ll_gpio.h ****   * @}
 152:Drivers/STM32F0xx_HAL_Driver/Inc/stm32f0xx_ll_gpio.h ****   */
 153:Drivers/STM32F0xx_HAL_Driver/Inc/stm32f0xx_ll_gpio.h **** 
 154:Drivers/STM32F0xx_HAL_Driver/Inc/stm32f0xx_ll_gpio.h **** /** @defgroup GPIO_LL_EC_SPEED Output Speed
 155:Drivers/STM32F0xx_HAL_Driver/Inc/stm32f0xx_ll_gpio.h ****   * @{
 156:Drivers/STM32F0xx_HAL_Driver/Inc/stm32f0xx_ll_gpio.h ****   */
ARM GAS  /tmp/ccfHzE7k.s 			page 10


 157:Drivers/STM32F0xx_HAL_Driver/Inc/stm32f0xx_ll_gpio.h **** #define LL_GPIO_SPEED_FREQ_LOW             (0x00000000U) /*!< Select I/O low output speed    */
 158:Drivers/STM32F0xx_HAL_Driver/Inc/stm32f0xx_ll_gpio.h **** #define LL_GPIO_SPEED_FREQ_MEDIUM          GPIO_OSPEEDR_OSPEEDR0_0 /*!< Select I/O medium output sp
 159:Drivers/STM32F0xx_HAL_Driver/Inc/stm32f0xx_ll_gpio.h **** #define LL_GPIO_SPEED_FREQ_HIGH            GPIO_OSPEEDR_OSPEEDR0   /*!< Select I/O high output spee
 160:Drivers/STM32F0xx_HAL_Driver/Inc/stm32f0xx_ll_gpio.h **** /**
 161:Drivers/STM32F0xx_HAL_Driver/Inc/stm32f0xx_ll_gpio.h ****   * @}
 162:Drivers/STM32F0xx_HAL_Driver/Inc/stm32f0xx_ll_gpio.h ****   */
 163:Drivers/STM32F0xx_HAL_Driver/Inc/stm32f0xx_ll_gpio.h **** #define LL_GPIO_SPEED_LOW                  LL_GPIO_SPEED_FREQ_LOW
 164:Drivers/STM32F0xx_HAL_Driver/Inc/stm32f0xx_ll_gpio.h **** #define LL_GPIO_SPEED_MEDIUM               LL_GPIO_SPEED_FREQ_MEDIUM
 165:Drivers/STM32F0xx_HAL_Driver/Inc/stm32f0xx_ll_gpio.h **** #define LL_GPIO_SPEED_HIGH                 LL_GPIO_SPEED_FREQ_HIGH
 166:Drivers/STM32F0xx_HAL_Driver/Inc/stm32f0xx_ll_gpio.h **** 
 167:Drivers/STM32F0xx_HAL_Driver/Inc/stm32f0xx_ll_gpio.h **** /** @defgroup GPIO_LL_EC_PULL Pull Up Pull Down
 168:Drivers/STM32F0xx_HAL_Driver/Inc/stm32f0xx_ll_gpio.h ****   * @{
 169:Drivers/STM32F0xx_HAL_Driver/Inc/stm32f0xx_ll_gpio.h ****   */
 170:Drivers/STM32F0xx_HAL_Driver/Inc/stm32f0xx_ll_gpio.h **** #define LL_GPIO_PULL_NO                    (0x00000000U) /*!< Select I/O no pull */
 171:Drivers/STM32F0xx_HAL_Driver/Inc/stm32f0xx_ll_gpio.h **** #define LL_GPIO_PULL_UP                    GPIO_PUPDR_PUPDR0_0 /*!< Select I/O pull up */
 172:Drivers/STM32F0xx_HAL_Driver/Inc/stm32f0xx_ll_gpio.h **** #define LL_GPIO_PULL_DOWN                  GPIO_PUPDR_PUPDR0_1 /*!< Select I/O pull down */
 173:Drivers/STM32F0xx_HAL_Driver/Inc/stm32f0xx_ll_gpio.h **** /**
 174:Drivers/STM32F0xx_HAL_Driver/Inc/stm32f0xx_ll_gpio.h ****   * @}
 175:Drivers/STM32F0xx_HAL_Driver/Inc/stm32f0xx_ll_gpio.h ****   */
 176:Drivers/STM32F0xx_HAL_Driver/Inc/stm32f0xx_ll_gpio.h **** 
 177:Drivers/STM32F0xx_HAL_Driver/Inc/stm32f0xx_ll_gpio.h **** /** @defgroup GPIO_LL_EC_AF Alternate Function
 178:Drivers/STM32F0xx_HAL_Driver/Inc/stm32f0xx_ll_gpio.h ****   * @{
 179:Drivers/STM32F0xx_HAL_Driver/Inc/stm32f0xx_ll_gpio.h ****   */
 180:Drivers/STM32F0xx_HAL_Driver/Inc/stm32f0xx_ll_gpio.h **** #define LL_GPIO_AF_0                       (0x0000000U) /*!< Select alternate function 0 */
 181:Drivers/STM32F0xx_HAL_Driver/Inc/stm32f0xx_ll_gpio.h **** #define LL_GPIO_AF_1                       (0x0000001U) /*!< Select alternate function 1 */
 182:Drivers/STM32F0xx_HAL_Driver/Inc/stm32f0xx_ll_gpio.h **** #define LL_GPIO_AF_2                       (0x0000002U) /*!< Select alternate function 2 */
 183:Drivers/STM32F0xx_HAL_Driver/Inc/stm32f0xx_ll_gpio.h **** #define LL_GPIO_AF_3                       (0x0000003U) /*!< Select alternate function 3 */
 184:Drivers/STM32F0xx_HAL_Driver/Inc/stm32f0xx_ll_gpio.h **** #define LL_GPIO_AF_4                       (0x0000004U) /*!< Select alternate function 4 */
 185:Drivers/STM32F0xx_HAL_Driver/Inc/stm32f0xx_ll_gpio.h **** #define LL_GPIO_AF_5                       (0x0000005U) /*!< Select alternate function 5 */
 186:Drivers/STM32F0xx_HAL_Driver/Inc/stm32f0xx_ll_gpio.h **** #define LL_GPIO_AF_6                       (0x0000006U) /*!< Select alternate function 6 */
 187:Drivers/STM32F0xx_HAL_Driver/Inc/stm32f0xx_ll_gpio.h **** #define LL_GPIO_AF_7                       (0x0000007U) /*!< Select alternate function 7 */
 188:Drivers/STM32F0xx_HAL_Driver/Inc/stm32f0xx_ll_gpio.h **** /**
 189:Drivers/STM32F0xx_HAL_Driver/Inc/stm32f0xx_ll_gpio.h ****   * @}
 190:Drivers/STM32F0xx_HAL_Driver/Inc/stm32f0xx_ll_gpio.h ****   */
 191:Drivers/STM32F0xx_HAL_Driver/Inc/stm32f0xx_ll_gpio.h **** 
 192:Drivers/STM32F0xx_HAL_Driver/Inc/stm32f0xx_ll_gpio.h **** /**
 193:Drivers/STM32F0xx_HAL_Driver/Inc/stm32f0xx_ll_gpio.h ****   * @}
 194:Drivers/STM32F0xx_HAL_Driver/Inc/stm32f0xx_ll_gpio.h ****   */
 195:Drivers/STM32F0xx_HAL_Driver/Inc/stm32f0xx_ll_gpio.h **** 
 196:Drivers/STM32F0xx_HAL_Driver/Inc/stm32f0xx_ll_gpio.h **** /* Exported macro ------------------------------------------------------------*/
 197:Drivers/STM32F0xx_HAL_Driver/Inc/stm32f0xx_ll_gpio.h **** /** @defgroup GPIO_LL_Exported_Macros GPIO Exported Macros
 198:Drivers/STM32F0xx_HAL_Driver/Inc/stm32f0xx_ll_gpio.h ****   * @{
 199:Drivers/STM32F0xx_HAL_Driver/Inc/stm32f0xx_ll_gpio.h ****   */
 200:Drivers/STM32F0xx_HAL_Driver/Inc/stm32f0xx_ll_gpio.h **** 
 201:Drivers/STM32F0xx_HAL_Driver/Inc/stm32f0xx_ll_gpio.h **** /** @defgroup GPIO_LL_EM_WRITE_READ Common Write and read registers Macros
 202:Drivers/STM32F0xx_HAL_Driver/Inc/stm32f0xx_ll_gpio.h ****   * @{
 203:Drivers/STM32F0xx_HAL_Driver/Inc/stm32f0xx_ll_gpio.h ****   */
 204:Drivers/STM32F0xx_HAL_Driver/Inc/stm32f0xx_ll_gpio.h **** 
 205:Drivers/STM32F0xx_HAL_Driver/Inc/stm32f0xx_ll_gpio.h **** /**
 206:Drivers/STM32F0xx_HAL_Driver/Inc/stm32f0xx_ll_gpio.h ****   * @brief  Write a value in GPIO register
 207:Drivers/STM32F0xx_HAL_Driver/Inc/stm32f0xx_ll_gpio.h ****   * @param  __INSTANCE__ GPIO Instance
 208:Drivers/STM32F0xx_HAL_Driver/Inc/stm32f0xx_ll_gpio.h ****   * @param  __REG__ Register to be written
 209:Drivers/STM32F0xx_HAL_Driver/Inc/stm32f0xx_ll_gpio.h ****   * @param  __VALUE__ Value to be written in the register
 210:Drivers/STM32F0xx_HAL_Driver/Inc/stm32f0xx_ll_gpio.h ****   * @retval None
 211:Drivers/STM32F0xx_HAL_Driver/Inc/stm32f0xx_ll_gpio.h ****   */
 212:Drivers/STM32F0xx_HAL_Driver/Inc/stm32f0xx_ll_gpio.h **** #define LL_GPIO_WriteReg(__INSTANCE__, __REG__, __VALUE__) WRITE_REG(__INSTANCE__->__REG__, (__VALU
 213:Drivers/STM32F0xx_HAL_Driver/Inc/stm32f0xx_ll_gpio.h **** 
ARM GAS  /tmp/ccfHzE7k.s 			page 11


 214:Drivers/STM32F0xx_HAL_Driver/Inc/stm32f0xx_ll_gpio.h **** /**
 215:Drivers/STM32F0xx_HAL_Driver/Inc/stm32f0xx_ll_gpio.h ****   * @brief  Read a value in GPIO register
 216:Drivers/STM32F0xx_HAL_Driver/Inc/stm32f0xx_ll_gpio.h ****   * @param  __INSTANCE__ GPIO Instance
 217:Drivers/STM32F0xx_HAL_Driver/Inc/stm32f0xx_ll_gpio.h ****   * @param  __REG__ Register to be read
 218:Drivers/STM32F0xx_HAL_Driver/Inc/stm32f0xx_ll_gpio.h ****   * @retval Register value
 219:Drivers/STM32F0xx_HAL_Driver/Inc/stm32f0xx_ll_gpio.h ****   */
 220:Drivers/STM32F0xx_HAL_Driver/Inc/stm32f0xx_ll_gpio.h **** #define LL_GPIO_ReadReg(__INSTANCE__, __REG__) READ_REG(__INSTANCE__->__REG__)
 221:Drivers/STM32F0xx_HAL_Driver/Inc/stm32f0xx_ll_gpio.h **** /**
 222:Drivers/STM32F0xx_HAL_Driver/Inc/stm32f0xx_ll_gpio.h ****   * @}
 223:Drivers/STM32F0xx_HAL_Driver/Inc/stm32f0xx_ll_gpio.h ****   */
 224:Drivers/STM32F0xx_HAL_Driver/Inc/stm32f0xx_ll_gpio.h **** 
 225:Drivers/STM32F0xx_HAL_Driver/Inc/stm32f0xx_ll_gpio.h **** /**
 226:Drivers/STM32F0xx_HAL_Driver/Inc/stm32f0xx_ll_gpio.h ****   * @}
 227:Drivers/STM32F0xx_HAL_Driver/Inc/stm32f0xx_ll_gpio.h ****   */
 228:Drivers/STM32F0xx_HAL_Driver/Inc/stm32f0xx_ll_gpio.h **** 
 229:Drivers/STM32F0xx_HAL_Driver/Inc/stm32f0xx_ll_gpio.h **** /* Exported functions --------------------------------------------------------*/
 230:Drivers/STM32F0xx_HAL_Driver/Inc/stm32f0xx_ll_gpio.h **** /** @defgroup GPIO_LL_Exported_Functions GPIO Exported Functions
 231:Drivers/STM32F0xx_HAL_Driver/Inc/stm32f0xx_ll_gpio.h ****   * @{
 232:Drivers/STM32F0xx_HAL_Driver/Inc/stm32f0xx_ll_gpio.h ****   */
 233:Drivers/STM32F0xx_HAL_Driver/Inc/stm32f0xx_ll_gpio.h **** 
 234:Drivers/STM32F0xx_HAL_Driver/Inc/stm32f0xx_ll_gpio.h **** /** @defgroup GPIO_LL_EF_Port_Configuration Port Configuration
 235:Drivers/STM32F0xx_HAL_Driver/Inc/stm32f0xx_ll_gpio.h ****   * @{
 236:Drivers/STM32F0xx_HAL_Driver/Inc/stm32f0xx_ll_gpio.h ****   */
 237:Drivers/STM32F0xx_HAL_Driver/Inc/stm32f0xx_ll_gpio.h **** 
 238:Drivers/STM32F0xx_HAL_Driver/Inc/stm32f0xx_ll_gpio.h **** /**
 239:Drivers/STM32F0xx_HAL_Driver/Inc/stm32f0xx_ll_gpio.h ****   * @brief  Configure gpio mode for a dedicated pin on dedicated port.
 240:Drivers/STM32F0xx_HAL_Driver/Inc/stm32f0xx_ll_gpio.h ****   * @note   I/O mode can be Input mode, General purpose output, Alternate function mode or Analog.
 241:Drivers/STM32F0xx_HAL_Driver/Inc/stm32f0xx_ll_gpio.h ****   * @note   Warning: only one pin can be passed as parameter.
 242:Drivers/STM32F0xx_HAL_Driver/Inc/stm32f0xx_ll_gpio.h ****   * @rmtoll MODER        MODEy         LL_GPIO_SetPinMode
 243:Drivers/STM32F0xx_HAL_Driver/Inc/stm32f0xx_ll_gpio.h ****   * @param  GPIOx GPIO Port
 244:Drivers/STM32F0xx_HAL_Driver/Inc/stm32f0xx_ll_gpio.h ****   * @param  Pin This parameter can be one of the following values:
 245:Drivers/STM32F0xx_HAL_Driver/Inc/stm32f0xx_ll_gpio.h ****   *         @arg @ref LL_GPIO_PIN_0
 246:Drivers/STM32F0xx_HAL_Driver/Inc/stm32f0xx_ll_gpio.h ****   *         @arg @ref LL_GPIO_PIN_1
 247:Drivers/STM32F0xx_HAL_Driver/Inc/stm32f0xx_ll_gpio.h ****   *         @arg @ref LL_GPIO_PIN_2
 248:Drivers/STM32F0xx_HAL_Driver/Inc/stm32f0xx_ll_gpio.h ****   *         @arg @ref LL_GPIO_PIN_3
 249:Drivers/STM32F0xx_HAL_Driver/Inc/stm32f0xx_ll_gpio.h ****   *         @arg @ref LL_GPIO_PIN_4
 250:Drivers/STM32F0xx_HAL_Driver/Inc/stm32f0xx_ll_gpio.h ****   *         @arg @ref LL_GPIO_PIN_5
 251:Drivers/STM32F0xx_HAL_Driver/Inc/stm32f0xx_ll_gpio.h ****   *         @arg @ref LL_GPIO_PIN_6
 252:Drivers/STM32F0xx_HAL_Driver/Inc/stm32f0xx_ll_gpio.h ****   *         @arg @ref LL_GPIO_PIN_7
 253:Drivers/STM32F0xx_HAL_Driver/Inc/stm32f0xx_ll_gpio.h ****   *         @arg @ref LL_GPIO_PIN_8
 254:Drivers/STM32F0xx_HAL_Driver/Inc/stm32f0xx_ll_gpio.h ****   *         @arg @ref LL_GPIO_PIN_9
 255:Drivers/STM32F0xx_HAL_Driver/Inc/stm32f0xx_ll_gpio.h ****   *         @arg @ref LL_GPIO_PIN_10
 256:Drivers/STM32F0xx_HAL_Driver/Inc/stm32f0xx_ll_gpio.h ****   *         @arg @ref LL_GPIO_PIN_11
 257:Drivers/STM32F0xx_HAL_Driver/Inc/stm32f0xx_ll_gpio.h ****   *         @arg @ref LL_GPIO_PIN_12
 258:Drivers/STM32F0xx_HAL_Driver/Inc/stm32f0xx_ll_gpio.h ****   *         @arg @ref LL_GPIO_PIN_13
 259:Drivers/STM32F0xx_HAL_Driver/Inc/stm32f0xx_ll_gpio.h ****   *         @arg @ref LL_GPIO_PIN_14
 260:Drivers/STM32F0xx_HAL_Driver/Inc/stm32f0xx_ll_gpio.h ****   *         @arg @ref LL_GPIO_PIN_15
 261:Drivers/STM32F0xx_HAL_Driver/Inc/stm32f0xx_ll_gpio.h ****   * @param  Mode This parameter can be one of the following values:
 262:Drivers/STM32F0xx_HAL_Driver/Inc/stm32f0xx_ll_gpio.h ****   *         @arg @ref LL_GPIO_MODE_INPUT
 263:Drivers/STM32F0xx_HAL_Driver/Inc/stm32f0xx_ll_gpio.h ****   *         @arg @ref LL_GPIO_MODE_OUTPUT
 264:Drivers/STM32F0xx_HAL_Driver/Inc/stm32f0xx_ll_gpio.h ****   *         @arg @ref LL_GPIO_MODE_ALTERNATE
 265:Drivers/STM32F0xx_HAL_Driver/Inc/stm32f0xx_ll_gpio.h ****   *         @arg @ref LL_GPIO_MODE_ANALOG
 266:Drivers/STM32F0xx_HAL_Driver/Inc/stm32f0xx_ll_gpio.h ****   * @retval None
 267:Drivers/STM32F0xx_HAL_Driver/Inc/stm32f0xx_ll_gpio.h ****   */
 268:Drivers/STM32F0xx_HAL_Driver/Inc/stm32f0xx_ll_gpio.h **** __STATIC_INLINE void LL_GPIO_SetPinMode(GPIO_TypeDef *GPIOx, uint32_t Pin, uint32_t Mode)
 269:Drivers/STM32F0xx_HAL_Driver/Inc/stm32f0xx_ll_gpio.h **** {
 270:Drivers/STM32F0xx_HAL_Driver/Inc/stm32f0xx_ll_gpio.h ****   MODIFY_REG(GPIOx->MODER, ((Pin * Pin) * GPIO_MODER_MODER0), ((Pin * Pin) * Mode));
ARM GAS  /tmp/ccfHzE7k.s 			page 12


 271:Drivers/STM32F0xx_HAL_Driver/Inc/stm32f0xx_ll_gpio.h **** }
 272:Drivers/STM32F0xx_HAL_Driver/Inc/stm32f0xx_ll_gpio.h **** 
 273:Drivers/STM32F0xx_HAL_Driver/Inc/stm32f0xx_ll_gpio.h **** /**
 274:Drivers/STM32F0xx_HAL_Driver/Inc/stm32f0xx_ll_gpio.h ****   * @brief  Return gpio mode for a dedicated pin on dedicated port.
 275:Drivers/STM32F0xx_HAL_Driver/Inc/stm32f0xx_ll_gpio.h ****   * @note   I/O mode can be Input mode, General purpose output, Alternate function mode or Analog.
 276:Drivers/STM32F0xx_HAL_Driver/Inc/stm32f0xx_ll_gpio.h ****   * @note   Warning: only one pin can be passed as parameter.
 277:Drivers/STM32F0xx_HAL_Driver/Inc/stm32f0xx_ll_gpio.h ****   * @rmtoll MODER        MODEy         LL_GPIO_GetPinMode
 278:Drivers/STM32F0xx_HAL_Driver/Inc/stm32f0xx_ll_gpio.h ****   * @param  GPIOx GPIO Port
 279:Drivers/STM32F0xx_HAL_Driver/Inc/stm32f0xx_ll_gpio.h ****   * @param  Pin This parameter can be one of the following values:
 280:Drivers/STM32F0xx_HAL_Driver/Inc/stm32f0xx_ll_gpio.h ****   *         @arg @ref LL_GPIO_PIN_0
 281:Drivers/STM32F0xx_HAL_Driver/Inc/stm32f0xx_ll_gpio.h ****   *         @arg @ref LL_GPIO_PIN_1
 282:Drivers/STM32F0xx_HAL_Driver/Inc/stm32f0xx_ll_gpio.h ****   *         @arg @ref LL_GPIO_PIN_2
 283:Drivers/STM32F0xx_HAL_Driver/Inc/stm32f0xx_ll_gpio.h ****   *         @arg @ref LL_GPIO_PIN_3
 284:Drivers/STM32F0xx_HAL_Driver/Inc/stm32f0xx_ll_gpio.h ****   *         @arg @ref LL_GPIO_PIN_4
 285:Drivers/STM32F0xx_HAL_Driver/Inc/stm32f0xx_ll_gpio.h ****   *         @arg @ref LL_GPIO_PIN_5
 286:Drivers/STM32F0xx_HAL_Driver/Inc/stm32f0xx_ll_gpio.h ****   *         @arg @ref LL_GPIO_PIN_6
 287:Drivers/STM32F0xx_HAL_Driver/Inc/stm32f0xx_ll_gpio.h ****   *         @arg @ref LL_GPIO_PIN_7
 288:Drivers/STM32F0xx_HAL_Driver/Inc/stm32f0xx_ll_gpio.h ****   *         @arg @ref LL_GPIO_PIN_8
 289:Drivers/STM32F0xx_HAL_Driver/Inc/stm32f0xx_ll_gpio.h ****   *         @arg @ref LL_GPIO_PIN_9
 290:Drivers/STM32F0xx_HAL_Driver/Inc/stm32f0xx_ll_gpio.h ****   *         @arg @ref LL_GPIO_PIN_10
 291:Drivers/STM32F0xx_HAL_Driver/Inc/stm32f0xx_ll_gpio.h ****   *         @arg @ref LL_GPIO_PIN_11
 292:Drivers/STM32F0xx_HAL_Driver/Inc/stm32f0xx_ll_gpio.h ****   *         @arg @ref LL_GPIO_PIN_12
 293:Drivers/STM32F0xx_HAL_Driver/Inc/stm32f0xx_ll_gpio.h ****   *         @arg @ref LL_GPIO_PIN_13
 294:Drivers/STM32F0xx_HAL_Driver/Inc/stm32f0xx_ll_gpio.h ****   *         @arg @ref LL_GPIO_PIN_14
 295:Drivers/STM32F0xx_HAL_Driver/Inc/stm32f0xx_ll_gpio.h ****   *         @arg @ref LL_GPIO_PIN_15
 296:Drivers/STM32F0xx_HAL_Driver/Inc/stm32f0xx_ll_gpio.h ****   * @retval Returned value can be one of the following values:
 297:Drivers/STM32F0xx_HAL_Driver/Inc/stm32f0xx_ll_gpio.h ****   *         @arg @ref LL_GPIO_MODE_INPUT
 298:Drivers/STM32F0xx_HAL_Driver/Inc/stm32f0xx_ll_gpio.h ****   *         @arg @ref LL_GPIO_MODE_OUTPUT
 299:Drivers/STM32F0xx_HAL_Driver/Inc/stm32f0xx_ll_gpio.h ****   *         @arg @ref LL_GPIO_MODE_ALTERNATE
 300:Drivers/STM32F0xx_HAL_Driver/Inc/stm32f0xx_ll_gpio.h ****   *         @arg @ref LL_GPIO_MODE_ANALOG
 301:Drivers/STM32F0xx_HAL_Driver/Inc/stm32f0xx_ll_gpio.h ****   */
 302:Drivers/STM32F0xx_HAL_Driver/Inc/stm32f0xx_ll_gpio.h **** __STATIC_INLINE uint32_t LL_GPIO_GetPinMode(GPIO_TypeDef *GPIOx, uint32_t Pin)
 303:Drivers/STM32F0xx_HAL_Driver/Inc/stm32f0xx_ll_gpio.h **** {
 304:Drivers/STM32F0xx_HAL_Driver/Inc/stm32f0xx_ll_gpio.h ****   return (uint32_t)(READ_BIT(GPIOx->MODER, ((Pin * Pin) * GPIO_MODER_MODER0)) / (Pin * Pin));
 305:Drivers/STM32F0xx_HAL_Driver/Inc/stm32f0xx_ll_gpio.h **** }
 306:Drivers/STM32F0xx_HAL_Driver/Inc/stm32f0xx_ll_gpio.h **** 
 307:Drivers/STM32F0xx_HAL_Driver/Inc/stm32f0xx_ll_gpio.h **** /**
 308:Drivers/STM32F0xx_HAL_Driver/Inc/stm32f0xx_ll_gpio.h ****   * @brief  Configure gpio output type for several pins on dedicated port.
 309:Drivers/STM32F0xx_HAL_Driver/Inc/stm32f0xx_ll_gpio.h ****   * @note   Output type as to be set when gpio pin is in output or
 310:Drivers/STM32F0xx_HAL_Driver/Inc/stm32f0xx_ll_gpio.h ****   *         alternate modes. Possible type are Push-pull or Open-drain.
 311:Drivers/STM32F0xx_HAL_Driver/Inc/stm32f0xx_ll_gpio.h ****   * @rmtoll OTYPER       OTy           LL_GPIO_SetPinOutputType
 312:Drivers/STM32F0xx_HAL_Driver/Inc/stm32f0xx_ll_gpio.h ****   * @param  GPIOx GPIO Port
 313:Drivers/STM32F0xx_HAL_Driver/Inc/stm32f0xx_ll_gpio.h ****   * @param  PinMask This parameter can be a combination of the following values:
 314:Drivers/STM32F0xx_HAL_Driver/Inc/stm32f0xx_ll_gpio.h ****   *         @arg @ref LL_GPIO_PIN_0
 315:Drivers/STM32F0xx_HAL_Driver/Inc/stm32f0xx_ll_gpio.h ****   *         @arg @ref LL_GPIO_PIN_1
 316:Drivers/STM32F0xx_HAL_Driver/Inc/stm32f0xx_ll_gpio.h ****   *         @arg @ref LL_GPIO_PIN_2
 317:Drivers/STM32F0xx_HAL_Driver/Inc/stm32f0xx_ll_gpio.h ****   *         @arg @ref LL_GPIO_PIN_3
 318:Drivers/STM32F0xx_HAL_Driver/Inc/stm32f0xx_ll_gpio.h ****   *         @arg @ref LL_GPIO_PIN_4
 319:Drivers/STM32F0xx_HAL_Driver/Inc/stm32f0xx_ll_gpio.h ****   *         @arg @ref LL_GPIO_PIN_5
 320:Drivers/STM32F0xx_HAL_Driver/Inc/stm32f0xx_ll_gpio.h ****   *         @arg @ref LL_GPIO_PIN_6
 321:Drivers/STM32F0xx_HAL_Driver/Inc/stm32f0xx_ll_gpio.h ****   *         @arg @ref LL_GPIO_PIN_7
 322:Drivers/STM32F0xx_HAL_Driver/Inc/stm32f0xx_ll_gpio.h ****   *         @arg @ref LL_GPIO_PIN_8
 323:Drivers/STM32F0xx_HAL_Driver/Inc/stm32f0xx_ll_gpio.h ****   *         @arg @ref LL_GPIO_PIN_9
 324:Drivers/STM32F0xx_HAL_Driver/Inc/stm32f0xx_ll_gpio.h ****   *         @arg @ref LL_GPIO_PIN_10
 325:Drivers/STM32F0xx_HAL_Driver/Inc/stm32f0xx_ll_gpio.h ****   *         @arg @ref LL_GPIO_PIN_11
 326:Drivers/STM32F0xx_HAL_Driver/Inc/stm32f0xx_ll_gpio.h ****   *         @arg @ref LL_GPIO_PIN_12
 327:Drivers/STM32F0xx_HAL_Driver/Inc/stm32f0xx_ll_gpio.h ****   *         @arg @ref LL_GPIO_PIN_13
ARM GAS  /tmp/ccfHzE7k.s 			page 13


 328:Drivers/STM32F0xx_HAL_Driver/Inc/stm32f0xx_ll_gpio.h ****   *         @arg @ref LL_GPIO_PIN_14
 329:Drivers/STM32F0xx_HAL_Driver/Inc/stm32f0xx_ll_gpio.h ****   *         @arg @ref LL_GPIO_PIN_15
 330:Drivers/STM32F0xx_HAL_Driver/Inc/stm32f0xx_ll_gpio.h ****   *         @arg @ref LL_GPIO_PIN_ALL
 331:Drivers/STM32F0xx_HAL_Driver/Inc/stm32f0xx_ll_gpio.h ****   * @param  OutputType This parameter can be one of the following values:
 332:Drivers/STM32F0xx_HAL_Driver/Inc/stm32f0xx_ll_gpio.h ****   *         @arg @ref LL_GPIO_OUTPUT_PUSHPULL
 333:Drivers/STM32F0xx_HAL_Driver/Inc/stm32f0xx_ll_gpio.h ****   *         @arg @ref LL_GPIO_OUTPUT_OPENDRAIN
 334:Drivers/STM32F0xx_HAL_Driver/Inc/stm32f0xx_ll_gpio.h ****   * @retval None
 335:Drivers/STM32F0xx_HAL_Driver/Inc/stm32f0xx_ll_gpio.h ****   */
 336:Drivers/STM32F0xx_HAL_Driver/Inc/stm32f0xx_ll_gpio.h **** __STATIC_INLINE void LL_GPIO_SetPinOutputType(GPIO_TypeDef *GPIOx, uint32_t PinMask, uint32_t Outpu
 337:Drivers/STM32F0xx_HAL_Driver/Inc/stm32f0xx_ll_gpio.h **** {
 338:Drivers/STM32F0xx_HAL_Driver/Inc/stm32f0xx_ll_gpio.h ****   MODIFY_REG(GPIOx->OTYPER, PinMask, (PinMask * OutputType));
 339:Drivers/STM32F0xx_HAL_Driver/Inc/stm32f0xx_ll_gpio.h **** }
 340:Drivers/STM32F0xx_HAL_Driver/Inc/stm32f0xx_ll_gpio.h **** 
 341:Drivers/STM32F0xx_HAL_Driver/Inc/stm32f0xx_ll_gpio.h **** /**
 342:Drivers/STM32F0xx_HAL_Driver/Inc/stm32f0xx_ll_gpio.h ****   * @brief  Return gpio output type for several pins on dedicated port.
 343:Drivers/STM32F0xx_HAL_Driver/Inc/stm32f0xx_ll_gpio.h ****   * @note   Output type as to be set when gpio pin is in output or
 344:Drivers/STM32F0xx_HAL_Driver/Inc/stm32f0xx_ll_gpio.h ****   *         alternate modes. Possible type are Push-pull or Open-drain.
 345:Drivers/STM32F0xx_HAL_Driver/Inc/stm32f0xx_ll_gpio.h ****   * @note   Warning: only one pin can be passed as parameter.
 346:Drivers/STM32F0xx_HAL_Driver/Inc/stm32f0xx_ll_gpio.h ****   * @rmtoll OTYPER       OTy           LL_GPIO_GetPinOutputType
 347:Drivers/STM32F0xx_HAL_Driver/Inc/stm32f0xx_ll_gpio.h ****   * @param  GPIOx GPIO Port
 348:Drivers/STM32F0xx_HAL_Driver/Inc/stm32f0xx_ll_gpio.h ****   * @param  Pin This parameter can be one of the following values:
 349:Drivers/STM32F0xx_HAL_Driver/Inc/stm32f0xx_ll_gpio.h ****   *         @arg @ref LL_GPIO_PIN_0
 350:Drivers/STM32F0xx_HAL_Driver/Inc/stm32f0xx_ll_gpio.h ****   *         @arg @ref LL_GPIO_PIN_1
 351:Drivers/STM32F0xx_HAL_Driver/Inc/stm32f0xx_ll_gpio.h ****   *         @arg @ref LL_GPIO_PIN_2
 352:Drivers/STM32F0xx_HAL_Driver/Inc/stm32f0xx_ll_gpio.h ****   *         @arg @ref LL_GPIO_PIN_3
 353:Drivers/STM32F0xx_HAL_Driver/Inc/stm32f0xx_ll_gpio.h ****   *         @arg @ref LL_GPIO_PIN_4
 354:Drivers/STM32F0xx_HAL_Driver/Inc/stm32f0xx_ll_gpio.h ****   *         @arg @ref LL_GPIO_PIN_5
 355:Drivers/STM32F0xx_HAL_Driver/Inc/stm32f0xx_ll_gpio.h ****   *         @arg @ref LL_GPIO_PIN_6
 356:Drivers/STM32F0xx_HAL_Driver/Inc/stm32f0xx_ll_gpio.h ****   *         @arg @ref LL_GPIO_PIN_7
 357:Drivers/STM32F0xx_HAL_Driver/Inc/stm32f0xx_ll_gpio.h ****   *         @arg @ref LL_GPIO_PIN_8
 358:Drivers/STM32F0xx_HAL_Driver/Inc/stm32f0xx_ll_gpio.h ****   *         @arg @ref LL_GPIO_PIN_9
 359:Drivers/STM32F0xx_HAL_Driver/Inc/stm32f0xx_ll_gpio.h ****   *         @arg @ref LL_GPIO_PIN_10
 360:Drivers/STM32F0xx_HAL_Driver/Inc/stm32f0xx_ll_gpio.h ****   *         @arg @ref LL_GPIO_PIN_11
 361:Drivers/STM32F0xx_HAL_Driver/Inc/stm32f0xx_ll_gpio.h ****   *         @arg @ref LL_GPIO_PIN_12
 362:Drivers/STM32F0xx_HAL_Driver/Inc/stm32f0xx_ll_gpio.h ****   *         @arg @ref LL_GPIO_PIN_13
 363:Drivers/STM32F0xx_HAL_Driver/Inc/stm32f0xx_ll_gpio.h ****   *         @arg @ref LL_GPIO_PIN_14
 364:Drivers/STM32F0xx_HAL_Driver/Inc/stm32f0xx_ll_gpio.h ****   *         @arg @ref LL_GPIO_PIN_15
 365:Drivers/STM32F0xx_HAL_Driver/Inc/stm32f0xx_ll_gpio.h ****   *         @arg @ref LL_GPIO_PIN_ALL
 366:Drivers/STM32F0xx_HAL_Driver/Inc/stm32f0xx_ll_gpio.h ****   * @retval Returned value can be one of the following values:
 367:Drivers/STM32F0xx_HAL_Driver/Inc/stm32f0xx_ll_gpio.h ****   *         @arg @ref LL_GPIO_OUTPUT_PUSHPULL
 368:Drivers/STM32F0xx_HAL_Driver/Inc/stm32f0xx_ll_gpio.h ****   *         @arg @ref LL_GPIO_OUTPUT_OPENDRAIN
 369:Drivers/STM32F0xx_HAL_Driver/Inc/stm32f0xx_ll_gpio.h ****   */
 370:Drivers/STM32F0xx_HAL_Driver/Inc/stm32f0xx_ll_gpio.h **** __STATIC_INLINE uint32_t LL_GPIO_GetPinOutputType(GPIO_TypeDef *GPIOx, uint32_t Pin)
 371:Drivers/STM32F0xx_HAL_Driver/Inc/stm32f0xx_ll_gpio.h **** {
 372:Drivers/STM32F0xx_HAL_Driver/Inc/stm32f0xx_ll_gpio.h ****   return (uint32_t)(READ_BIT(GPIOx->OTYPER, Pin) / Pin);
 373:Drivers/STM32F0xx_HAL_Driver/Inc/stm32f0xx_ll_gpio.h **** }
 374:Drivers/STM32F0xx_HAL_Driver/Inc/stm32f0xx_ll_gpio.h **** 
 375:Drivers/STM32F0xx_HAL_Driver/Inc/stm32f0xx_ll_gpio.h **** /**
 376:Drivers/STM32F0xx_HAL_Driver/Inc/stm32f0xx_ll_gpio.h ****   * @brief  Configure gpio speed for a dedicated pin on dedicated port.
 377:Drivers/STM32F0xx_HAL_Driver/Inc/stm32f0xx_ll_gpio.h ****   * @note   I/O speed can be Low, Medium, Fast or High speed.
 378:Drivers/STM32F0xx_HAL_Driver/Inc/stm32f0xx_ll_gpio.h ****   * @note   Warning: only one pin can be passed as parameter.
 379:Drivers/STM32F0xx_HAL_Driver/Inc/stm32f0xx_ll_gpio.h ****   * @note   Refer to datasheet for frequency specifications and the power
 380:Drivers/STM32F0xx_HAL_Driver/Inc/stm32f0xx_ll_gpio.h ****   *         supply and load conditions for each speed.
 381:Drivers/STM32F0xx_HAL_Driver/Inc/stm32f0xx_ll_gpio.h ****   * @rmtoll OSPEEDR      OSPEEDy       LL_GPIO_SetPinSpeed
 382:Drivers/STM32F0xx_HAL_Driver/Inc/stm32f0xx_ll_gpio.h ****   * @param  GPIOx GPIO Port
 383:Drivers/STM32F0xx_HAL_Driver/Inc/stm32f0xx_ll_gpio.h ****   * @param  Pin This parameter can be one of the following values:
 384:Drivers/STM32F0xx_HAL_Driver/Inc/stm32f0xx_ll_gpio.h ****   *         @arg @ref LL_GPIO_PIN_0
ARM GAS  /tmp/ccfHzE7k.s 			page 14


 385:Drivers/STM32F0xx_HAL_Driver/Inc/stm32f0xx_ll_gpio.h ****   *         @arg @ref LL_GPIO_PIN_1
 386:Drivers/STM32F0xx_HAL_Driver/Inc/stm32f0xx_ll_gpio.h ****   *         @arg @ref LL_GPIO_PIN_2
 387:Drivers/STM32F0xx_HAL_Driver/Inc/stm32f0xx_ll_gpio.h ****   *         @arg @ref LL_GPIO_PIN_3
 388:Drivers/STM32F0xx_HAL_Driver/Inc/stm32f0xx_ll_gpio.h ****   *         @arg @ref LL_GPIO_PIN_4
 389:Drivers/STM32F0xx_HAL_Driver/Inc/stm32f0xx_ll_gpio.h ****   *         @arg @ref LL_GPIO_PIN_5
 390:Drivers/STM32F0xx_HAL_Driver/Inc/stm32f0xx_ll_gpio.h ****   *         @arg @ref LL_GPIO_PIN_6
 391:Drivers/STM32F0xx_HAL_Driver/Inc/stm32f0xx_ll_gpio.h ****   *         @arg @ref LL_GPIO_PIN_7
 392:Drivers/STM32F0xx_HAL_Driver/Inc/stm32f0xx_ll_gpio.h ****   *         @arg @ref LL_GPIO_PIN_8
 393:Drivers/STM32F0xx_HAL_Driver/Inc/stm32f0xx_ll_gpio.h ****   *         @arg @ref LL_GPIO_PIN_9
 394:Drivers/STM32F0xx_HAL_Driver/Inc/stm32f0xx_ll_gpio.h ****   *         @arg @ref LL_GPIO_PIN_10
 395:Drivers/STM32F0xx_HAL_Driver/Inc/stm32f0xx_ll_gpio.h ****   *         @arg @ref LL_GPIO_PIN_11
 396:Drivers/STM32F0xx_HAL_Driver/Inc/stm32f0xx_ll_gpio.h ****   *         @arg @ref LL_GPIO_PIN_12
 397:Drivers/STM32F0xx_HAL_Driver/Inc/stm32f0xx_ll_gpio.h ****   *         @arg @ref LL_GPIO_PIN_13
 398:Drivers/STM32F0xx_HAL_Driver/Inc/stm32f0xx_ll_gpio.h ****   *         @arg @ref LL_GPIO_PIN_14
 399:Drivers/STM32F0xx_HAL_Driver/Inc/stm32f0xx_ll_gpio.h ****   *         @arg @ref LL_GPIO_PIN_15
 400:Drivers/STM32F0xx_HAL_Driver/Inc/stm32f0xx_ll_gpio.h ****   * @param  Speed This parameter can be one of the following values:
 401:Drivers/STM32F0xx_HAL_Driver/Inc/stm32f0xx_ll_gpio.h ****   *         @arg @ref LL_GPIO_SPEED_FREQ_LOW
 402:Drivers/STM32F0xx_HAL_Driver/Inc/stm32f0xx_ll_gpio.h ****   *         @arg @ref LL_GPIO_SPEED_FREQ_MEDIUM
 403:Drivers/STM32F0xx_HAL_Driver/Inc/stm32f0xx_ll_gpio.h ****   *         @arg @ref LL_GPIO_SPEED_FREQ_HIGH
 404:Drivers/STM32F0xx_HAL_Driver/Inc/stm32f0xx_ll_gpio.h ****   * @retval None
 405:Drivers/STM32F0xx_HAL_Driver/Inc/stm32f0xx_ll_gpio.h ****   */
 406:Drivers/STM32F0xx_HAL_Driver/Inc/stm32f0xx_ll_gpio.h **** __STATIC_INLINE void LL_GPIO_SetPinSpeed(GPIO_TypeDef *GPIOx, uint32_t Pin, uint32_t  Speed)
 407:Drivers/STM32F0xx_HAL_Driver/Inc/stm32f0xx_ll_gpio.h **** {
 408:Drivers/STM32F0xx_HAL_Driver/Inc/stm32f0xx_ll_gpio.h ****   MODIFY_REG(GPIOx->OSPEEDR, ((Pin * Pin) * GPIO_OSPEEDR_OSPEEDR0), ((Pin * Pin) * Speed));
 409:Drivers/STM32F0xx_HAL_Driver/Inc/stm32f0xx_ll_gpio.h **** }
 410:Drivers/STM32F0xx_HAL_Driver/Inc/stm32f0xx_ll_gpio.h **** 
 411:Drivers/STM32F0xx_HAL_Driver/Inc/stm32f0xx_ll_gpio.h **** /**
 412:Drivers/STM32F0xx_HAL_Driver/Inc/stm32f0xx_ll_gpio.h ****   * @brief  Return gpio speed for a dedicated pin on dedicated port.
 413:Drivers/STM32F0xx_HAL_Driver/Inc/stm32f0xx_ll_gpio.h ****   * @note   I/O speed can be Low, Medium, Fast or High speed.
 414:Drivers/STM32F0xx_HAL_Driver/Inc/stm32f0xx_ll_gpio.h ****   * @note   Warning: only one pin can be passed as parameter.
 415:Drivers/STM32F0xx_HAL_Driver/Inc/stm32f0xx_ll_gpio.h ****   * @note   Refer to datasheet for frequency specifications and the power
 416:Drivers/STM32F0xx_HAL_Driver/Inc/stm32f0xx_ll_gpio.h ****   *         supply and load conditions for each speed.
 417:Drivers/STM32F0xx_HAL_Driver/Inc/stm32f0xx_ll_gpio.h ****   * @rmtoll OSPEEDR      OSPEEDy       LL_GPIO_GetPinSpeed
 418:Drivers/STM32F0xx_HAL_Driver/Inc/stm32f0xx_ll_gpio.h ****   * @param  GPIOx GPIO Port
 419:Drivers/STM32F0xx_HAL_Driver/Inc/stm32f0xx_ll_gpio.h ****   * @param  Pin This parameter can be one of the following values:
 420:Drivers/STM32F0xx_HAL_Driver/Inc/stm32f0xx_ll_gpio.h ****   *         @arg @ref LL_GPIO_PIN_0
 421:Drivers/STM32F0xx_HAL_Driver/Inc/stm32f0xx_ll_gpio.h ****   *         @arg @ref LL_GPIO_PIN_1
 422:Drivers/STM32F0xx_HAL_Driver/Inc/stm32f0xx_ll_gpio.h ****   *         @arg @ref LL_GPIO_PIN_2
 423:Drivers/STM32F0xx_HAL_Driver/Inc/stm32f0xx_ll_gpio.h ****   *         @arg @ref LL_GPIO_PIN_3
 424:Drivers/STM32F0xx_HAL_Driver/Inc/stm32f0xx_ll_gpio.h ****   *         @arg @ref LL_GPIO_PIN_4
 425:Drivers/STM32F0xx_HAL_Driver/Inc/stm32f0xx_ll_gpio.h ****   *         @arg @ref LL_GPIO_PIN_5
 426:Drivers/STM32F0xx_HAL_Driver/Inc/stm32f0xx_ll_gpio.h ****   *         @arg @ref LL_GPIO_PIN_6
 427:Drivers/STM32F0xx_HAL_Driver/Inc/stm32f0xx_ll_gpio.h ****   *         @arg @ref LL_GPIO_PIN_7
 428:Drivers/STM32F0xx_HAL_Driver/Inc/stm32f0xx_ll_gpio.h ****   *         @arg @ref LL_GPIO_PIN_8
 429:Drivers/STM32F0xx_HAL_Driver/Inc/stm32f0xx_ll_gpio.h ****   *         @arg @ref LL_GPIO_PIN_9
 430:Drivers/STM32F0xx_HAL_Driver/Inc/stm32f0xx_ll_gpio.h ****   *         @arg @ref LL_GPIO_PIN_10
 431:Drivers/STM32F0xx_HAL_Driver/Inc/stm32f0xx_ll_gpio.h ****   *         @arg @ref LL_GPIO_PIN_11
 432:Drivers/STM32F0xx_HAL_Driver/Inc/stm32f0xx_ll_gpio.h ****   *         @arg @ref LL_GPIO_PIN_12
 433:Drivers/STM32F0xx_HAL_Driver/Inc/stm32f0xx_ll_gpio.h ****   *         @arg @ref LL_GPIO_PIN_13
 434:Drivers/STM32F0xx_HAL_Driver/Inc/stm32f0xx_ll_gpio.h ****   *         @arg @ref LL_GPIO_PIN_14
 435:Drivers/STM32F0xx_HAL_Driver/Inc/stm32f0xx_ll_gpio.h ****   *         @arg @ref LL_GPIO_PIN_15
 436:Drivers/STM32F0xx_HAL_Driver/Inc/stm32f0xx_ll_gpio.h ****   * @retval Returned value can be one of the following values:
 437:Drivers/STM32F0xx_HAL_Driver/Inc/stm32f0xx_ll_gpio.h ****   *         @arg @ref LL_GPIO_SPEED_FREQ_LOW
 438:Drivers/STM32F0xx_HAL_Driver/Inc/stm32f0xx_ll_gpio.h ****   *         @arg @ref LL_GPIO_SPEED_FREQ_MEDIUM
 439:Drivers/STM32F0xx_HAL_Driver/Inc/stm32f0xx_ll_gpio.h ****   *         @arg @ref LL_GPIO_SPEED_FREQ_HIGH
 440:Drivers/STM32F0xx_HAL_Driver/Inc/stm32f0xx_ll_gpio.h ****   */
 441:Drivers/STM32F0xx_HAL_Driver/Inc/stm32f0xx_ll_gpio.h **** __STATIC_INLINE uint32_t LL_GPIO_GetPinSpeed(GPIO_TypeDef *GPIOx, uint32_t Pin)
ARM GAS  /tmp/ccfHzE7k.s 			page 15


 442:Drivers/STM32F0xx_HAL_Driver/Inc/stm32f0xx_ll_gpio.h **** {
 443:Drivers/STM32F0xx_HAL_Driver/Inc/stm32f0xx_ll_gpio.h ****   return (uint32_t)(READ_BIT(GPIOx->OSPEEDR, ((Pin * Pin) * GPIO_OSPEEDR_OSPEEDR0)) / (Pin * Pin));
 444:Drivers/STM32F0xx_HAL_Driver/Inc/stm32f0xx_ll_gpio.h **** }
 445:Drivers/STM32F0xx_HAL_Driver/Inc/stm32f0xx_ll_gpio.h **** 
 446:Drivers/STM32F0xx_HAL_Driver/Inc/stm32f0xx_ll_gpio.h **** /**
 447:Drivers/STM32F0xx_HAL_Driver/Inc/stm32f0xx_ll_gpio.h ****   * @brief  Configure gpio pull-up or pull-down for a dedicated pin on a dedicated port.
 448:Drivers/STM32F0xx_HAL_Driver/Inc/stm32f0xx_ll_gpio.h ****   * @note   Warning: only one pin can be passed as parameter.
 449:Drivers/STM32F0xx_HAL_Driver/Inc/stm32f0xx_ll_gpio.h ****   * @rmtoll PUPDR        PUPDy         LL_GPIO_SetPinPull
 450:Drivers/STM32F0xx_HAL_Driver/Inc/stm32f0xx_ll_gpio.h ****   * @param  GPIOx GPIO Port
 451:Drivers/STM32F0xx_HAL_Driver/Inc/stm32f0xx_ll_gpio.h ****   * @param  Pin This parameter can be one of the following values:
 452:Drivers/STM32F0xx_HAL_Driver/Inc/stm32f0xx_ll_gpio.h ****   *         @arg @ref LL_GPIO_PIN_0
 453:Drivers/STM32F0xx_HAL_Driver/Inc/stm32f0xx_ll_gpio.h ****   *         @arg @ref LL_GPIO_PIN_1
 454:Drivers/STM32F0xx_HAL_Driver/Inc/stm32f0xx_ll_gpio.h ****   *         @arg @ref LL_GPIO_PIN_2
 455:Drivers/STM32F0xx_HAL_Driver/Inc/stm32f0xx_ll_gpio.h ****   *         @arg @ref LL_GPIO_PIN_3
 456:Drivers/STM32F0xx_HAL_Driver/Inc/stm32f0xx_ll_gpio.h ****   *         @arg @ref LL_GPIO_PIN_4
 457:Drivers/STM32F0xx_HAL_Driver/Inc/stm32f0xx_ll_gpio.h ****   *         @arg @ref LL_GPIO_PIN_5
 458:Drivers/STM32F0xx_HAL_Driver/Inc/stm32f0xx_ll_gpio.h ****   *         @arg @ref LL_GPIO_PIN_6
 459:Drivers/STM32F0xx_HAL_Driver/Inc/stm32f0xx_ll_gpio.h ****   *         @arg @ref LL_GPIO_PIN_7
 460:Drivers/STM32F0xx_HAL_Driver/Inc/stm32f0xx_ll_gpio.h ****   *         @arg @ref LL_GPIO_PIN_8
 461:Drivers/STM32F0xx_HAL_Driver/Inc/stm32f0xx_ll_gpio.h ****   *         @arg @ref LL_GPIO_PIN_9
 462:Drivers/STM32F0xx_HAL_Driver/Inc/stm32f0xx_ll_gpio.h ****   *         @arg @ref LL_GPIO_PIN_10
 463:Drivers/STM32F0xx_HAL_Driver/Inc/stm32f0xx_ll_gpio.h ****   *         @arg @ref LL_GPIO_PIN_11
 464:Drivers/STM32F0xx_HAL_Driver/Inc/stm32f0xx_ll_gpio.h ****   *         @arg @ref LL_GPIO_PIN_12
 465:Drivers/STM32F0xx_HAL_Driver/Inc/stm32f0xx_ll_gpio.h ****   *         @arg @ref LL_GPIO_PIN_13
 466:Drivers/STM32F0xx_HAL_Driver/Inc/stm32f0xx_ll_gpio.h ****   *         @arg @ref LL_GPIO_PIN_14
 467:Drivers/STM32F0xx_HAL_Driver/Inc/stm32f0xx_ll_gpio.h ****   *         @arg @ref LL_GPIO_PIN_15
 468:Drivers/STM32F0xx_HAL_Driver/Inc/stm32f0xx_ll_gpio.h ****   * @param  Pull This parameter can be one of the following values:
 469:Drivers/STM32F0xx_HAL_Driver/Inc/stm32f0xx_ll_gpio.h ****   *         @arg @ref LL_GPIO_PULL_NO
 470:Drivers/STM32F0xx_HAL_Driver/Inc/stm32f0xx_ll_gpio.h ****   *         @arg @ref LL_GPIO_PULL_UP
 471:Drivers/STM32F0xx_HAL_Driver/Inc/stm32f0xx_ll_gpio.h ****   *         @arg @ref LL_GPIO_PULL_DOWN
 472:Drivers/STM32F0xx_HAL_Driver/Inc/stm32f0xx_ll_gpio.h ****   * @retval None
 473:Drivers/STM32F0xx_HAL_Driver/Inc/stm32f0xx_ll_gpio.h ****   */
 474:Drivers/STM32F0xx_HAL_Driver/Inc/stm32f0xx_ll_gpio.h **** __STATIC_INLINE void LL_GPIO_SetPinPull(GPIO_TypeDef *GPIOx, uint32_t Pin, uint32_t Pull)
 475:Drivers/STM32F0xx_HAL_Driver/Inc/stm32f0xx_ll_gpio.h **** {
 476:Drivers/STM32F0xx_HAL_Driver/Inc/stm32f0xx_ll_gpio.h ****   MODIFY_REG(GPIOx->PUPDR, ((Pin * Pin) * GPIO_PUPDR_PUPDR0), ((Pin * Pin) * Pull));
 477:Drivers/STM32F0xx_HAL_Driver/Inc/stm32f0xx_ll_gpio.h **** }
 478:Drivers/STM32F0xx_HAL_Driver/Inc/stm32f0xx_ll_gpio.h **** 
 479:Drivers/STM32F0xx_HAL_Driver/Inc/stm32f0xx_ll_gpio.h **** /**
 480:Drivers/STM32F0xx_HAL_Driver/Inc/stm32f0xx_ll_gpio.h ****   * @brief  Return gpio pull-up or pull-down for a dedicated pin on a dedicated port
 481:Drivers/STM32F0xx_HAL_Driver/Inc/stm32f0xx_ll_gpio.h ****   * @note   Warning: only one pin can be passed as parameter.
 482:Drivers/STM32F0xx_HAL_Driver/Inc/stm32f0xx_ll_gpio.h ****   * @rmtoll PUPDR        PUPDy         LL_GPIO_GetPinPull
 483:Drivers/STM32F0xx_HAL_Driver/Inc/stm32f0xx_ll_gpio.h ****   * @param  GPIOx GPIO Port
 484:Drivers/STM32F0xx_HAL_Driver/Inc/stm32f0xx_ll_gpio.h ****   * @param  Pin This parameter can be one of the following values:
 485:Drivers/STM32F0xx_HAL_Driver/Inc/stm32f0xx_ll_gpio.h ****   *         @arg @ref LL_GPIO_PIN_0
 486:Drivers/STM32F0xx_HAL_Driver/Inc/stm32f0xx_ll_gpio.h ****   *         @arg @ref LL_GPIO_PIN_1
 487:Drivers/STM32F0xx_HAL_Driver/Inc/stm32f0xx_ll_gpio.h ****   *         @arg @ref LL_GPIO_PIN_2
 488:Drivers/STM32F0xx_HAL_Driver/Inc/stm32f0xx_ll_gpio.h ****   *         @arg @ref LL_GPIO_PIN_3
 489:Drivers/STM32F0xx_HAL_Driver/Inc/stm32f0xx_ll_gpio.h ****   *         @arg @ref LL_GPIO_PIN_4
 490:Drivers/STM32F0xx_HAL_Driver/Inc/stm32f0xx_ll_gpio.h ****   *         @arg @ref LL_GPIO_PIN_5
 491:Drivers/STM32F0xx_HAL_Driver/Inc/stm32f0xx_ll_gpio.h ****   *         @arg @ref LL_GPIO_PIN_6
 492:Drivers/STM32F0xx_HAL_Driver/Inc/stm32f0xx_ll_gpio.h ****   *         @arg @ref LL_GPIO_PIN_7
 493:Drivers/STM32F0xx_HAL_Driver/Inc/stm32f0xx_ll_gpio.h ****   *         @arg @ref LL_GPIO_PIN_8
 494:Drivers/STM32F0xx_HAL_Driver/Inc/stm32f0xx_ll_gpio.h ****   *         @arg @ref LL_GPIO_PIN_9
 495:Drivers/STM32F0xx_HAL_Driver/Inc/stm32f0xx_ll_gpio.h ****   *         @arg @ref LL_GPIO_PIN_10
 496:Drivers/STM32F0xx_HAL_Driver/Inc/stm32f0xx_ll_gpio.h ****   *         @arg @ref LL_GPIO_PIN_11
 497:Drivers/STM32F0xx_HAL_Driver/Inc/stm32f0xx_ll_gpio.h ****   *         @arg @ref LL_GPIO_PIN_12
 498:Drivers/STM32F0xx_HAL_Driver/Inc/stm32f0xx_ll_gpio.h ****   *         @arg @ref LL_GPIO_PIN_13
ARM GAS  /tmp/ccfHzE7k.s 			page 16


 499:Drivers/STM32F0xx_HAL_Driver/Inc/stm32f0xx_ll_gpio.h ****   *         @arg @ref LL_GPIO_PIN_14
 500:Drivers/STM32F0xx_HAL_Driver/Inc/stm32f0xx_ll_gpio.h ****   *         @arg @ref LL_GPIO_PIN_15
 501:Drivers/STM32F0xx_HAL_Driver/Inc/stm32f0xx_ll_gpio.h ****   * @retval Returned value can be one of the following values:
 502:Drivers/STM32F0xx_HAL_Driver/Inc/stm32f0xx_ll_gpio.h ****   *         @arg @ref LL_GPIO_PULL_NO
 503:Drivers/STM32F0xx_HAL_Driver/Inc/stm32f0xx_ll_gpio.h ****   *         @arg @ref LL_GPIO_PULL_UP
 504:Drivers/STM32F0xx_HAL_Driver/Inc/stm32f0xx_ll_gpio.h ****   *         @arg @ref LL_GPIO_PULL_DOWN
 505:Drivers/STM32F0xx_HAL_Driver/Inc/stm32f0xx_ll_gpio.h ****   */
 506:Drivers/STM32F0xx_HAL_Driver/Inc/stm32f0xx_ll_gpio.h **** __STATIC_INLINE uint32_t LL_GPIO_GetPinPull(GPIO_TypeDef *GPIOx, uint32_t Pin)
 507:Drivers/STM32F0xx_HAL_Driver/Inc/stm32f0xx_ll_gpio.h **** {
 508:Drivers/STM32F0xx_HAL_Driver/Inc/stm32f0xx_ll_gpio.h ****   return (uint32_t)(READ_BIT(GPIOx->PUPDR, ((Pin * Pin) * GPIO_PUPDR_PUPDR0)) / (Pin * Pin));
 509:Drivers/STM32F0xx_HAL_Driver/Inc/stm32f0xx_ll_gpio.h **** }
 510:Drivers/STM32F0xx_HAL_Driver/Inc/stm32f0xx_ll_gpio.h **** 
 511:Drivers/STM32F0xx_HAL_Driver/Inc/stm32f0xx_ll_gpio.h **** /**
 512:Drivers/STM32F0xx_HAL_Driver/Inc/stm32f0xx_ll_gpio.h ****   * @brief  Configure gpio alternate function of a dedicated pin from 0 to 7 for a dedicated port.
 513:Drivers/STM32F0xx_HAL_Driver/Inc/stm32f0xx_ll_gpio.h ****   * @note   Possible values are from AF0 to AF7 depending on target.
 514:Drivers/STM32F0xx_HAL_Driver/Inc/stm32f0xx_ll_gpio.h ****   * @note   Warning: only one pin can be passed as parameter.
 515:Drivers/STM32F0xx_HAL_Driver/Inc/stm32f0xx_ll_gpio.h ****   * @rmtoll AFRL         AFSELy        LL_GPIO_SetAFPin_0_7
 516:Drivers/STM32F0xx_HAL_Driver/Inc/stm32f0xx_ll_gpio.h ****   * @param  GPIOx GPIO Port
 517:Drivers/STM32F0xx_HAL_Driver/Inc/stm32f0xx_ll_gpio.h ****   * @param  Pin This parameter can be one of the following values:
 518:Drivers/STM32F0xx_HAL_Driver/Inc/stm32f0xx_ll_gpio.h ****   *         @arg @ref LL_GPIO_PIN_0
 519:Drivers/STM32F0xx_HAL_Driver/Inc/stm32f0xx_ll_gpio.h ****   *         @arg @ref LL_GPIO_PIN_1
 520:Drivers/STM32F0xx_HAL_Driver/Inc/stm32f0xx_ll_gpio.h ****   *         @arg @ref LL_GPIO_PIN_2
 521:Drivers/STM32F0xx_HAL_Driver/Inc/stm32f0xx_ll_gpio.h ****   *         @arg @ref LL_GPIO_PIN_3
 522:Drivers/STM32F0xx_HAL_Driver/Inc/stm32f0xx_ll_gpio.h ****   *         @arg @ref LL_GPIO_PIN_4
 523:Drivers/STM32F0xx_HAL_Driver/Inc/stm32f0xx_ll_gpio.h ****   *         @arg @ref LL_GPIO_PIN_5
 524:Drivers/STM32F0xx_HAL_Driver/Inc/stm32f0xx_ll_gpio.h ****   *         @arg @ref LL_GPIO_PIN_6
 525:Drivers/STM32F0xx_HAL_Driver/Inc/stm32f0xx_ll_gpio.h ****   *         @arg @ref LL_GPIO_PIN_7
 526:Drivers/STM32F0xx_HAL_Driver/Inc/stm32f0xx_ll_gpio.h ****   * @param  Alternate This parameter can be one of the following values:
 527:Drivers/STM32F0xx_HAL_Driver/Inc/stm32f0xx_ll_gpio.h ****   *         @arg @ref LL_GPIO_AF_0
 528:Drivers/STM32F0xx_HAL_Driver/Inc/stm32f0xx_ll_gpio.h ****   *         @arg @ref LL_GPIO_AF_1
 529:Drivers/STM32F0xx_HAL_Driver/Inc/stm32f0xx_ll_gpio.h ****   *         @arg @ref LL_GPIO_AF_2
 530:Drivers/STM32F0xx_HAL_Driver/Inc/stm32f0xx_ll_gpio.h ****   *         @arg @ref LL_GPIO_AF_3
 531:Drivers/STM32F0xx_HAL_Driver/Inc/stm32f0xx_ll_gpio.h ****   *         @arg @ref LL_GPIO_AF_4
 532:Drivers/STM32F0xx_HAL_Driver/Inc/stm32f0xx_ll_gpio.h ****   *         @arg @ref LL_GPIO_AF_5
 533:Drivers/STM32F0xx_HAL_Driver/Inc/stm32f0xx_ll_gpio.h ****   *         @arg @ref LL_GPIO_AF_6
 534:Drivers/STM32F0xx_HAL_Driver/Inc/stm32f0xx_ll_gpio.h ****   *         @arg @ref LL_GPIO_AF_7
 535:Drivers/STM32F0xx_HAL_Driver/Inc/stm32f0xx_ll_gpio.h ****   * @retval None
 536:Drivers/STM32F0xx_HAL_Driver/Inc/stm32f0xx_ll_gpio.h ****   */
 537:Drivers/STM32F0xx_HAL_Driver/Inc/stm32f0xx_ll_gpio.h **** __STATIC_INLINE void LL_GPIO_SetAFPin_0_7(GPIO_TypeDef *GPIOx, uint32_t Pin, uint32_t Alternate)
 538:Drivers/STM32F0xx_HAL_Driver/Inc/stm32f0xx_ll_gpio.h **** {
 539:Drivers/STM32F0xx_HAL_Driver/Inc/stm32f0xx_ll_gpio.h ****   MODIFY_REG(GPIOx->AFR[0], ((((Pin * Pin) * Pin) * Pin) * GPIO_AFRL_AFSEL0),
 540:Drivers/STM32F0xx_HAL_Driver/Inc/stm32f0xx_ll_gpio.h ****              ((((Pin * Pin) * Pin) * Pin) * Alternate));
 541:Drivers/STM32F0xx_HAL_Driver/Inc/stm32f0xx_ll_gpio.h **** }
 542:Drivers/STM32F0xx_HAL_Driver/Inc/stm32f0xx_ll_gpio.h **** 
 543:Drivers/STM32F0xx_HAL_Driver/Inc/stm32f0xx_ll_gpio.h **** /**
 544:Drivers/STM32F0xx_HAL_Driver/Inc/stm32f0xx_ll_gpio.h ****   * @brief  Return gpio alternate function of a dedicated pin from 0 to 7 for a dedicated port.
 545:Drivers/STM32F0xx_HAL_Driver/Inc/stm32f0xx_ll_gpio.h ****   * @rmtoll AFRL         AFSELy        LL_GPIO_GetAFPin_0_7
 546:Drivers/STM32F0xx_HAL_Driver/Inc/stm32f0xx_ll_gpio.h ****   * @param  GPIOx GPIO Port
 547:Drivers/STM32F0xx_HAL_Driver/Inc/stm32f0xx_ll_gpio.h ****   * @param  Pin This parameter can be one of the following values:
 548:Drivers/STM32F0xx_HAL_Driver/Inc/stm32f0xx_ll_gpio.h ****   *         @arg @ref LL_GPIO_PIN_0
 549:Drivers/STM32F0xx_HAL_Driver/Inc/stm32f0xx_ll_gpio.h ****   *         @arg @ref LL_GPIO_PIN_1
 550:Drivers/STM32F0xx_HAL_Driver/Inc/stm32f0xx_ll_gpio.h ****   *         @arg @ref LL_GPIO_PIN_2
 551:Drivers/STM32F0xx_HAL_Driver/Inc/stm32f0xx_ll_gpio.h ****   *         @arg @ref LL_GPIO_PIN_3
 552:Drivers/STM32F0xx_HAL_Driver/Inc/stm32f0xx_ll_gpio.h ****   *         @arg @ref LL_GPIO_PIN_4
 553:Drivers/STM32F0xx_HAL_Driver/Inc/stm32f0xx_ll_gpio.h ****   *         @arg @ref LL_GPIO_PIN_5
 554:Drivers/STM32F0xx_HAL_Driver/Inc/stm32f0xx_ll_gpio.h ****   *         @arg @ref LL_GPIO_PIN_6
 555:Drivers/STM32F0xx_HAL_Driver/Inc/stm32f0xx_ll_gpio.h ****   *         @arg @ref LL_GPIO_PIN_7
ARM GAS  /tmp/ccfHzE7k.s 			page 17


 556:Drivers/STM32F0xx_HAL_Driver/Inc/stm32f0xx_ll_gpio.h ****   * @retval Returned value can be one of the following values:
 557:Drivers/STM32F0xx_HAL_Driver/Inc/stm32f0xx_ll_gpio.h ****   *         @arg @ref LL_GPIO_AF_0
 558:Drivers/STM32F0xx_HAL_Driver/Inc/stm32f0xx_ll_gpio.h ****   *         @arg @ref LL_GPIO_AF_1
 559:Drivers/STM32F0xx_HAL_Driver/Inc/stm32f0xx_ll_gpio.h ****   *         @arg @ref LL_GPIO_AF_2
 560:Drivers/STM32F0xx_HAL_Driver/Inc/stm32f0xx_ll_gpio.h ****   *         @arg @ref LL_GPIO_AF_3
 561:Drivers/STM32F0xx_HAL_Driver/Inc/stm32f0xx_ll_gpio.h ****   *         @arg @ref LL_GPIO_AF_4
 562:Drivers/STM32F0xx_HAL_Driver/Inc/stm32f0xx_ll_gpio.h ****   *         @arg @ref LL_GPIO_AF_5
 563:Drivers/STM32F0xx_HAL_Driver/Inc/stm32f0xx_ll_gpio.h ****   *         @arg @ref LL_GPIO_AF_6
 564:Drivers/STM32F0xx_HAL_Driver/Inc/stm32f0xx_ll_gpio.h ****   *         @arg @ref LL_GPIO_AF_7
 565:Drivers/STM32F0xx_HAL_Driver/Inc/stm32f0xx_ll_gpio.h ****   */
 566:Drivers/STM32F0xx_HAL_Driver/Inc/stm32f0xx_ll_gpio.h **** __STATIC_INLINE uint32_t LL_GPIO_GetAFPin_0_7(GPIO_TypeDef *GPIOx, uint32_t Pin)
 567:Drivers/STM32F0xx_HAL_Driver/Inc/stm32f0xx_ll_gpio.h **** {
 568:Drivers/STM32F0xx_HAL_Driver/Inc/stm32f0xx_ll_gpio.h ****   return (uint32_t)(READ_BIT(GPIOx->AFR[0],
 569:Drivers/STM32F0xx_HAL_Driver/Inc/stm32f0xx_ll_gpio.h ****                              ((((Pin * Pin) * Pin) * Pin) * GPIO_AFRL_AFSEL0)) / (((Pin * Pin) * Pi
 570:Drivers/STM32F0xx_HAL_Driver/Inc/stm32f0xx_ll_gpio.h **** }
 571:Drivers/STM32F0xx_HAL_Driver/Inc/stm32f0xx_ll_gpio.h **** 
 572:Drivers/STM32F0xx_HAL_Driver/Inc/stm32f0xx_ll_gpio.h **** /**
 573:Drivers/STM32F0xx_HAL_Driver/Inc/stm32f0xx_ll_gpio.h ****   * @brief  Configure gpio alternate function of a dedicated pin from 8 to 15 for a dedicated port.
 574:Drivers/STM32F0xx_HAL_Driver/Inc/stm32f0xx_ll_gpio.h ****   * @note   Possible values are from AF0 to AF7 depending on target.
 575:Drivers/STM32F0xx_HAL_Driver/Inc/stm32f0xx_ll_gpio.h ****   * @note   Warning: only one pin can be passed as parameter.
 576:Drivers/STM32F0xx_HAL_Driver/Inc/stm32f0xx_ll_gpio.h ****   * @rmtoll AFRH         AFSELy        LL_GPIO_SetAFPin_8_15
 577:Drivers/STM32F0xx_HAL_Driver/Inc/stm32f0xx_ll_gpio.h ****   * @param  GPIOx GPIO Port
 578:Drivers/STM32F0xx_HAL_Driver/Inc/stm32f0xx_ll_gpio.h ****   * @param  Pin This parameter can be one of the following values:
 579:Drivers/STM32F0xx_HAL_Driver/Inc/stm32f0xx_ll_gpio.h ****   *         @arg @ref LL_GPIO_PIN_8
 580:Drivers/STM32F0xx_HAL_Driver/Inc/stm32f0xx_ll_gpio.h ****   *         @arg @ref LL_GPIO_PIN_9
 581:Drivers/STM32F0xx_HAL_Driver/Inc/stm32f0xx_ll_gpio.h ****   *         @arg @ref LL_GPIO_PIN_10
 582:Drivers/STM32F0xx_HAL_Driver/Inc/stm32f0xx_ll_gpio.h ****   *         @arg @ref LL_GPIO_PIN_11
 583:Drivers/STM32F0xx_HAL_Driver/Inc/stm32f0xx_ll_gpio.h ****   *         @arg @ref LL_GPIO_PIN_12
 584:Drivers/STM32F0xx_HAL_Driver/Inc/stm32f0xx_ll_gpio.h ****   *         @arg @ref LL_GPIO_PIN_13
 585:Drivers/STM32F0xx_HAL_Driver/Inc/stm32f0xx_ll_gpio.h ****   *         @arg @ref LL_GPIO_PIN_14
 586:Drivers/STM32F0xx_HAL_Driver/Inc/stm32f0xx_ll_gpio.h ****   *         @arg @ref LL_GPIO_PIN_15
 587:Drivers/STM32F0xx_HAL_Driver/Inc/stm32f0xx_ll_gpio.h ****   * @param  Alternate This parameter can be one of the following values:
 588:Drivers/STM32F0xx_HAL_Driver/Inc/stm32f0xx_ll_gpio.h ****   *         @arg @ref LL_GPIO_AF_0
 589:Drivers/STM32F0xx_HAL_Driver/Inc/stm32f0xx_ll_gpio.h ****   *         @arg @ref LL_GPIO_AF_1
 590:Drivers/STM32F0xx_HAL_Driver/Inc/stm32f0xx_ll_gpio.h ****   *         @arg @ref LL_GPIO_AF_2
 591:Drivers/STM32F0xx_HAL_Driver/Inc/stm32f0xx_ll_gpio.h ****   *         @arg @ref LL_GPIO_AF_3
 592:Drivers/STM32F0xx_HAL_Driver/Inc/stm32f0xx_ll_gpio.h ****   *         @arg @ref LL_GPIO_AF_4
 593:Drivers/STM32F0xx_HAL_Driver/Inc/stm32f0xx_ll_gpio.h ****   *         @arg @ref LL_GPIO_AF_5
 594:Drivers/STM32F0xx_HAL_Driver/Inc/stm32f0xx_ll_gpio.h ****   *         @arg @ref LL_GPIO_AF_6
 595:Drivers/STM32F0xx_HAL_Driver/Inc/stm32f0xx_ll_gpio.h ****   *         @arg @ref LL_GPIO_AF_7
 596:Drivers/STM32F0xx_HAL_Driver/Inc/stm32f0xx_ll_gpio.h ****   * @retval None
 597:Drivers/STM32F0xx_HAL_Driver/Inc/stm32f0xx_ll_gpio.h ****   */
 598:Drivers/STM32F0xx_HAL_Driver/Inc/stm32f0xx_ll_gpio.h **** __STATIC_INLINE void LL_GPIO_SetAFPin_8_15(GPIO_TypeDef *GPIOx, uint32_t Pin, uint32_t Alternate)
 599:Drivers/STM32F0xx_HAL_Driver/Inc/stm32f0xx_ll_gpio.h **** {
 600:Drivers/STM32F0xx_HAL_Driver/Inc/stm32f0xx_ll_gpio.h ****   MODIFY_REG(GPIOx->AFR[1], (((((Pin >> 8U) * (Pin >> 8U)) * (Pin >> 8U)) * (Pin >> 8U)) * GPIO_AFR
 601:Drivers/STM32F0xx_HAL_Driver/Inc/stm32f0xx_ll_gpio.h ****              (((((Pin >> 8U) * (Pin >> 8U)) * (Pin >> 8U)) * (Pin >> 8U)) * Alternate));
 602:Drivers/STM32F0xx_HAL_Driver/Inc/stm32f0xx_ll_gpio.h **** }
 603:Drivers/STM32F0xx_HAL_Driver/Inc/stm32f0xx_ll_gpio.h **** 
 604:Drivers/STM32F0xx_HAL_Driver/Inc/stm32f0xx_ll_gpio.h **** /**
 605:Drivers/STM32F0xx_HAL_Driver/Inc/stm32f0xx_ll_gpio.h ****   * @brief  Return gpio alternate function of a dedicated pin from 8 to 15 for a dedicated port.
 606:Drivers/STM32F0xx_HAL_Driver/Inc/stm32f0xx_ll_gpio.h ****   * @note   Possible values are from AF0 to AF7 depending on target.
 607:Drivers/STM32F0xx_HAL_Driver/Inc/stm32f0xx_ll_gpio.h ****   * @rmtoll AFRH         AFSELy        LL_GPIO_GetAFPin_8_15
 608:Drivers/STM32F0xx_HAL_Driver/Inc/stm32f0xx_ll_gpio.h ****   * @param  GPIOx GPIO Port
 609:Drivers/STM32F0xx_HAL_Driver/Inc/stm32f0xx_ll_gpio.h ****   * @param  Pin This parameter can be one of the following values:
 610:Drivers/STM32F0xx_HAL_Driver/Inc/stm32f0xx_ll_gpio.h ****   *         @arg @ref LL_GPIO_PIN_8
 611:Drivers/STM32F0xx_HAL_Driver/Inc/stm32f0xx_ll_gpio.h ****   *         @arg @ref LL_GPIO_PIN_9
 612:Drivers/STM32F0xx_HAL_Driver/Inc/stm32f0xx_ll_gpio.h ****   *         @arg @ref LL_GPIO_PIN_10
ARM GAS  /tmp/ccfHzE7k.s 			page 18


 613:Drivers/STM32F0xx_HAL_Driver/Inc/stm32f0xx_ll_gpio.h ****   *         @arg @ref LL_GPIO_PIN_11
 614:Drivers/STM32F0xx_HAL_Driver/Inc/stm32f0xx_ll_gpio.h ****   *         @arg @ref LL_GPIO_PIN_12
 615:Drivers/STM32F0xx_HAL_Driver/Inc/stm32f0xx_ll_gpio.h ****   *         @arg @ref LL_GPIO_PIN_13
 616:Drivers/STM32F0xx_HAL_Driver/Inc/stm32f0xx_ll_gpio.h ****   *         @arg @ref LL_GPIO_PIN_14
 617:Drivers/STM32F0xx_HAL_Driver/Inc/stm32f0xx_ll_gpio.h ****   *         @arg @ref LL_GPIO_PIN_15
 618:Drivers/STM32F0xx_HAL_Driver/Inc/stm32f0xx_ll_gpio.h ****   * @retval Returned value can be one of the following values:
 619:Drivers/STM32F0xx_HAL_Driver/Inc/stm32f0xx_ll_gpio.h ****   *         @arg @ref LL_GPIO_AF_0
 620:Drivers/STM32F0xx_HAL_Driver/Inc/stm32f0xx_ll_gpio.h ****   *         @arg @ref LL_GPIO_AF_1
 621:Drivers/STM32F0xx_HAL_Driver/Inc/stm32f0xx_ll_gpio.h ****   *         @arg @ref LL_GPIO_AF_2
 622:Drivers/STM32F0xx_HAL_Driver/Inc/stm32f0xx_ll_gpio.h ****   *         @arg @ref LL_GPIO_AF_3
 623:Drivers/STM32F0xx_HAL_Driver/Inc/stm32f0xx_ll_gpio.h ****   *         @arg @ref LL_GPIO_AF_4
 624:Drivers/STM32F0xx_HAL_Driver/Inc/stm32f0xx_ll_gpio.h ****   *         @arg @ref LL_GPIO_AF_5
 625:Drivers/STM32F0xx_HAL_Driver/Inc/stm32f0xx_ll_gpio.h ****   *         @arg @ref LL_GPIO_AF_6
 626:Drivers/STM32F0xx_HAL_Driver/Inc/stm32f0xx_ll_gpio.h ****   *         @arg @ref LL_GPIO_AF_7
 627:Drivers/STM32F0xx_HAL_Driver/Inc/stm32f0xx_ll_gpio.h ****   */
 628:Drivers/STM32F0xx_HAL_Driver/Inc/stm32f0xx_ll_gpio.h **** __STATIC_INLINE uint32_t LL_GPIO_GetAFPin_8_15(GPIO_TypeDef *GPIOx, uint32_t Pin)
 629:Drivers/STM32F0xx_HAL_Driver/Inc/stm32f0xx_ll_gpio.h **** {
 630:Drivers/STM32F0xx_HAL_Driver/Inc/stm32f0xx_ll_gpio.h ****   return (uint32_t)(READ_BIT(GPIOx->AFR[1],
 631:Drivers/STM32F0xx_HAL_Driver/Inc/stm32f0xx_ll_gpio.h ****                              (((((Pin >> 8U) * (Pin >> 8U)) * (Pin >> 8U)) * (Pin >> 8U)) * GPIO_AF
 632:Drivers/STM32F0xx_HAL_Driver/Inc/stm32f0xx_ll_gpio.h ****                                  (Pin >> 8U)) * (Pin >> 8U)) * (Pin >> 8U)));
 633:Drivers/STM32F0xx_HAL_Driver/Inc/stm32f0xx_ll_gpio.h **** }
 634:Drivers/STM32F0xx_HAL_Driver/Inc/stm32f0xx_ll_gpio.h **** 
 635:Drivers/STM32F0xx_HAL_Driver/Inc/stm32f0xx_ll_gpio.h **** 
 636:Drivers/STM32F0xx_HAL_Driver/Inc/stm32f0xx_ll_gpio.h **** /**
 637:Drivers/STM32F0xx_HAL_Driver/Inc/stm32f0xx_ll_gpio.h ****   * @brief  Lock configuration of several pins for a dedicated port.
 638:Drivers/STM32F0xx_HAL_Driver/Inc/stm32f0xx_ll_gpio.h ****   * @note   When the lock sequence has been applied on a port bit, the
 639:Drivers/STM32F0xx_HAL_Driver/Inc/stm32f0xx_ll_gpio.h ****   *         value of this port bit can no longer be modified until the
 640:Drivers/STM32F0xx_HAL_Driver/Inc/stm32f0xx_ll_gpio.h ****   *         next reset.
 641:Drivers/STM32F0xx_HAL_Driver/Inc/stm32f0xx_ll_gpio.h ****   * @note   Each lock bit freezes a specific configuration register
 642:Drivers/STM32F0xx_HAL_Driver/Inc/stm32f0xx_ll_gpio.h ****   *         (control and alternate function registers).
 643:Drivers/STM32F0xx_HAL_Driver/Inc/stm32f0xx_ll_gpio.h ****   * @rmtoll LCKR         LCKK          LL_GPIO_LockPin
 644:Drivers/STM32F0xx_HAL_Driver/Inc/stm32f0xx_ll_gpio.h ****   * @param  GPIOx GPIO Port
 645:Drivers/STM32F0xx_HAL_Driver/Inc/stm32f0xx_ll_gpio.h ****   * @param  PinMask This parameter can be a combination of the following values:
 646:Drivers/STM32F0xx_HAL_Driver/Inc/stm32f0xx_ll_gpio.h ****   *         @arg @ref LL_GPIO_PIN_0
 647:Drivers/STM32F0xx_HAL_Driver/Inc/stm32f0xx_ll_gpio.h ****   *         @arg @ref LL_GPIO_PIN_1
 648:Drivers/STM32F0xx_HAL_Driver/Inc/stm32f0xx_ll_gpio.h ****   *         @arg @ref LL_GPIO_PIN_2
 649:Drivers/STM32F0xx_HAL_Driver/Inc/stm32f0xx_ll_gpio.h ****   *         @arg @ref LL_GPIO_PIN_3
 650:Drivers/STM32F0xx_HAL_Driver/Inc/stm32f0xx_ll_gpio.h ****   *         @arg @ref LL_GPIO_PIN_4
 651:Drivers/STM32F0xx_HAL_Driver/Inc/stm32f0xx_ll_gpio.h ****   *         @arg @ref LL_GPIO_PIN_5
 652:Drivers/STM32F0xx_HAL_Driver/Inc/stm32f0xx_ll_gpio.h ****   *         @arg @ref LL_GPIO_PIN_6
 653:Drivers/STM32F0xx_HAL_Driver/Inc/stm32f0xx_ll_gpio.h ****   *         @arg @ref LL_GPIO_PIN_7
 654:Drivers/STM32F0xx_HAL_Driver/Inc/stm32f0xx_ll_gpio.h ****   *         @arg @ref LL_GPIO_PIN_8
 655:Drivers/STM32F0xx_HAL_Driver/Inc/stm32f0xx_ll_gpio.h ****   *         @arg @ref LL_GPIO_PIN_9
 656:Drivers/STM32F0xx_HAL_Driver/Inc/stm32f0xx_ll_gpio.h ****   *         @arg @ref LL_GPIO_PIN_10
 657:Drivers/STM32F0xx_HAL_Driver/Inc/stm32f0xx_ll_gpio.h ****   *         @arg @ref LL_GPIO_PIN_11
 658:Drivers/STM32F0xx_HAL_Driver/Inc/stm32f0xx_ll_gpio.h ****   *         @arg @ref LL_GPIO_PIN_12
 659:Drivers/STM32F0xx_HAL_Driver/Inc/stm32f0xx_ll_gpio.h ****   *         @arg @ref LL_GPIO_PIN_13
 660:Drivers/STM32F0xx_HAL_Driver/Inc/stm32f0xx_ll_gpio.h ****   *         @arg @ref LL_GPIO_PIN_14
 661:Drivers/STM32F0xx_HAL_Driver/Inc/stm32f0xx_ll_gpio.h ****   *         @arg @ref LL_GPIO_PIN_15
 662:Drivers/STM32F0xx_HAL_Driver/Inc/stm32f0xx_ll_gpio.h ****   *         @arg @ref LL_GPIO_PIN_ALL
 663:Drivers/STM32F0xx_HAL_Driver/Inc/stm32f0xx_ll_gpio.h ****   * @retval None
 664:Drivers/STM32F0xx_HAL_Driver/Inc/stm32f0xx_ll_gpio.h ****   */
 665:Drivers/STM32F0xx_HAL_Driver/Inc/stm32f0xx_ll_gpio.h **** __STATIC_INLINE void LL_GPIO_LockPin(GPIO_TypeDef *GPIOx, uint32_t PinMask)
 666:Drivers/STM32F0xx_HAL_Driver/Inc/stm32f0xx_ll_gpio.h **** {
 667:Drivers/STM32F0xx_HAL_Driver/Inc/stm32f0xx_ll_gpio.h ****   __IO uint32_t temp;
 668:Drivers/STM32F0xx_HAL_Driver/Inc/stm32f0xx_ll_gpio.h ****   WRITE_REG(GPIOx->LCKR, GPIO_LCKR_LCKK | PinMask);
 669:Drivers/STM32F0xx_HAL_Driver/Inc/stm32f0xx_ll_gpio.h ****   WRITE_REG(GPIOx->LCKR, PinMask);
ARM GAS  /tmp/ccfHzE7k.s 			page 19


 670:Drivers/STM32F0xx_HAL_Driver/Inc/stm32f0xx_ll_gpio.h ****   WRITE_REG(GPIOx->LCKR, GPIO_LCKR_LCKK | PinMask);
 671:Drivers/STM32F0xx_HAL_Driver/Inc/stm32f0xx_ll_gpio.h ****   temp = READ_REG(GPIOx->LCKR);
 672:Drivers/STM32F0xx_HAL_Driver/Inc/stm32f0xx_ll_gpio.h ****   (void) temp;
 673:Drivers/STM32F0xx_HAL_Driver/Inc/stm32f0xx_ll_gpio.h **** }
 674:Drivers/STM32F0xx_HAL_Driver/Inc/stm32f0xx_ll_gpio.h **** 
 675:Drivers/STM32F0xx_HAL_Driver/Inc/stm32f0xx_ll_gpio.h **** /**
 676:Drivers/STM32F0xx_HAL_Driver/Inc/stm32f0xx_ll_gpio.h ****   * @brief  Return 1 if all pins passed as parameter, of a dedicated port, are locked. else Return 
 677:Drivers/STM32F0xx_HAL_Driver/Inc/stm32f0xx_ll_gpio.h ****   * @rmtoll LCKR         LCKy          LL_GPIO_IsPinLocked
 678:Drivers/STM32F0xx_HAL_Driver/Inc/stm32f0xx_ll_gpio.h ****   * @param  GPIOx GPIO Port
 679:Drivers/STM32F0xx_HAL_Driver/Inc/stm32f0xx_ll_gpio.h ****   * @param  PinMask This parameter can be a combination of the following values:
 680:Drivers/STM32F0xx_HAL_Driver/Inc/stm32f0xx_ll_gpio.h ****   *         @arg @ref LL_GPIO_PIN_0
 681:Drivers/STM32F0xx_HAL_Driver/Inc/stm32f0xx_ll_gpio.h ****   *         @arg @ref LL_GPIO_PIN_1
 682:Drivers/STM32F0xx_HAL_Driver/Inc/stm32f0xx_ll_gpio.h ****   *         @arg @ref LL_GPIO_PIN_2
 683:Drivers/STM32F0xx_HAL_Driver/Inc/stm32f0xx_ll_gpio.h ****   *         @arg @ref LL_GPIO_PIN_3
 684:Drivers/STM32F0xx_HAL_Driver/Inc/stm32f0xx_ll_gpio.h ****   *         @arg @ref LL_GPIO_PIN_4
 685:Drivers/STM32F0xx_HAL_Driver/Inc/stm32f0xx_ll_gpio.h ****   *         @arg @ref LL_GPIO_PIN_5
 686:Drivers/STM32F0xx_HAL_Driver/Inc/stm32f0xx_ll_gpio.h ****   *         @arg @ref LL_GPIO_PIN_6
 687:Drivers/STM32F0xx_HAL_Driver/Inc/stm32f0xx_ll_gpio.h ****   *         @arg @ref LL_GPIO_PIN_7
 688:Drivers/STM32F0xx_HAL_Driver/Inc/stm32f0xx_ll_gpio.h ****   *         @arg @ref LL_GPIO_PIN_8
 689:Drivers/STM32F0xx_HAL_Driver/Inc/stm32f0xx_ll_gpio.h ****   *         @arg @ref LL_GPIO_PIN_9
 690:Drivers/STM32F0xx_HAL_Driver/Inc/stm32f0xx_ll_gpio.h ****   *         @arg @ref LL_GPIO_PIN_10
 691:Drivers/STM32F0xx_HAL_Driver/Inc/stm32f0xx_ll_gpio.h ****   *         @arg @ref LL_GPIO_PIN_11
 692:Drivers/STM32F0xx_HAL_Driver/Inc/stm32f0xx_ll_gpio.h ****   *         @arg @ref LL_GPIO_PIN_12
 693:Drivers/STM32F0xx_HAL_Driver/Inc/stm32f0xx_ll_gpio.h ****   *         @arg @ref LL_GPIO_PIN_13
 694:Drivers/STM32F0xx_HAL_Driver/Inc/stm32f0xx_ll_gpio.h ****   *         @arg @ref LL_GPIO_PIN_14
 695:Drivers/STM32F0xx_HAL_Driver/Inc/stm32f0xx_ll_gpio.h ****   *         @arg @ref LL_GPIO_PIN_15
 696:Drivers/STM32F0xx_HAL_Driver/Inc/stm32f0xx_ll_gpio.h ****   *         @arg @ref LL_GPIO_PIN_ALL
 697:Drivers/STM32F0xx_HAL_Driver/Inc/stm32f0xx_ll_gpio.h ****   * @retval State of bit (1 or 0).
 698:Drivers/STM32F0xx_HAL_Driver/Inc/stm32f0xx_ll_gpio.h ****   */
 699:Drivers/STM32F0xx_HAL_Driver/Inc/stm32f0xx_ll_gpio.h **** __STATIC_INLINE uint32_t LL_GPIO_IsPinLocked(GPIO_TypeDef *GPIOx, uint32_t PinMask)
 700:Drivers/STM32F0xx_HAL_Driver/Inc/stm32f0xx_ll_gpio.h **** {
 701:Drivers/STM32F0xx_HAL_Driver/Inc/stm32f0xx_ll_gpio.h ****   return (READ_BIT(GPIOx->LCKR, PinMask) == (PinMask));
 702:Drivers/STM32F0xx_HAL_Driver/Inc/stm32f0xx_ll_gpio.h **** }
 703:Drivers/STM32F0xx_HAL_Driver/Inc/stm32f0xx_ll_gpio.h **** 
 704:Drivers/STM32F0xx_HAL_Driver/Inc/stm32f0xx_ll_gpio.h **** /**
 705:Drivers/STM32F0xx_HAL_Driver/Inc/stm32f0xx_ll_gpio.h ****   * @brief  Return 1 if one of the pin of a dedicated port is locked. else return 0.
 706:Drivers/STM32F0xx_HAL_Driver/Inc/stm32f0xx_ll_gpio.h ****   * @rmtoll LCKR         LCKK          LL_GPIO_IsAnyPinLocked
 707:Drivers/STM32F0xx_HAL_Driver/Inc/stm32f0xx_ll_gpio.h ****   * @param  GPIOx GPIO Port
 708:Drivers/STM32F0xx_HAL_Driver/Inc/stm32f0xx_ll_gpio.h ****   * @retval State of bit (1 or 0).
 709:Drivers/STM32F0xx_HAL_Driver/Inc/stm32f0xx_ll_gpio.h ****   */
 710:Drivers/STM32F0xx_HAL_Driver/Inc/stm32f0xx_ll_gpio.h **** __STATIC_INLINE uint32_t LL_GPIO_IsAnyPinLocked(GPIO_TypeDef *GPIOx)
 711:Drivers/STM32F0xx_HAL_Driver/Inc/stm32f0xx_ll_gpio.h **** {
 712:Drivers/STM32F0xx_HAL_Driver/Inc/stm32f0xx_ll_gpio.h ****   return (READ_BIT(GPIOx->LCKR, GPIO_LCKR_LCKK) == (GPIO_LCKR_LCKK));
 713:Drivers/STM32F0xx_HAL_Driver/Inc/stm32f0xx_ll_gpio.h **** }
 714:Drivers/STM32F0xx_HAL_Driver/Inc/stm32f0xx_ll_gpio.h **** 
 715:Drivers/STM32F0xx_HAL_Driver/Inc/stm32f0xx_ll_gpio.h **** /**
 716:Drivers/STM32F0xx_HAL_Driver/Inc/stm32f0xx_ll_gpio.h ****   * @}
 717:Drivers/STM32F0xx_HAL_Driver/Inc/stm32f0xx_ll_gpio.h ****   */
 718:Drivers/STM32F0xx_HAL_Driver/Inc/stm32f0xx_ll_gpio.h **** 
 719:Drivers/STM32F0xx_HAL_Driver/Inc/stm32f0xx_ll_gpio.h **** /** @defgroup GPIO_LL_EF_Data_Access Data Access
 720:Drivers/STM32F0xx_HAL_Driver/Inc/stm32f0xx_ll_gpio.h ****   * @{
 721:Drivers/STM32F0xx_HAL_Driver/Inc/stm32f0xx_ll_gpio.h ****   */
 722:Drivers/STM32F0xx_HAL_Driver/Inc/stm32f0xx_ll_gpio.h **** 
 723:Drivers/STM32F0xx_HAL_Driver/Inc/stm32f0xx_ll_gpio.h **** /**
 724:Drivers/STM32F0xx_HAL_Driver/Inc/stm32f0xx_ll_gpio.h ****   * @brief  Return full input data register value for a dedicated port.
 725:Drivers/STM32F0xx_HAL_Driver/Inc/stm32f0xx_ll_gpio.h ****   * @rmtoll IDR          IDy           LL_GPIO_ReadInputPort
 726:Drivers/STM32F0xx_HAL_Driver/Inc/stm32f0xx_ll_gpio.h ****   * @param  GPIOx GPIO Port
ARM GAS  /tmp/ccfHzE7k.s 			page 20


 727:Drivers/STM32F0xx_HAL_Driver/Inc/stm32f0xx_ll_gpio.h ****   * @retval Input data register value of port
 728:Drivers/STM32F0xx_HAL_Driver/Inc/stm32f0xx_ll_gpio.h ****   */
 729:Drivers/STM32F0xx_HAL_Driver/Inc/stm32f0xx_ll_gpio.h **** __STATIC_INLINE uint32_t LL_GPIO_ReadInputPort(GPIO_TypeDef *GPIOx)
 730:Drivers/STM32F0xx_HAL_Driver/Inc/stm32f0xx_ll_gpio.h **** {
 731:Drivers/STM32F0xx_HAL_Driver/Inc/stm32f0xx_ll_gpio.h ****   return (uint32_t)(READ_REG(GPIOx->IDR));
 732:Drivers/STM32F0xx_HAL_Driver/Inc/stm32f0xx_ll_gpio.h **** }
 733:Drivers/STM32F0xx_HAL_Driver/Inc/stm32f0xx_ll_gpio.h **** 
 734:Drivers/STM32F0xx_HAL_Driver/Inc/stm32f0xx_ll_gpio.h **** /**
 735:Drivers/STM32F0xx_HAL_Driver/Inc/stm32f0xx_ll_gpio.h ****   * @brief  Return if input data level for several pins of dedicated port is high or low.
 736:Drivers/STM32F0xx_HAL_Driver/Inc/stm32f0xx_ll_gpio.h ****   * @rmtoll IDR          IDy           LL_GPIO_IsInputPinSet
 737:Drivers/STM32F0xx_HAL_Driver/Inc/stm32f0xx_ll_gpio.h ****   * @param  GPIOx GPIO Port
 738:Drivers/STM32F0xx_HAL_Driver/Inc/stm32f0xx_ll_gpio.h ****   * @param  PinMask This parameter can be a combination of the following values:
 739:Drivers/STM32F0xx_HAL_Driver/Inc/stm32f0xx_ll_gpio.h ****   *         @arg @ref LL_GPIO_PIN_0
 740:Drivers/STM32F0xx_HAL_Driver/Inc/stm32f0xx_ll_gpio.h ****   *         @arg @ref LL_GPIO_PIN_1
 741:Drivers/STM32F0xx_HAL_Driver/Inc/stm32f0xx_ll_gpio.h ****   *         @arg @ref LL_GPIO_PIN_2
 742:Drivers/STM32F0xx_HAL_Driver/Inc/stm32f0xx_ll_gpio.h ****   *         @arg @ref LL_GPIO_PIN_3
 743:Drivers/STM32F0xx_HAL_Driver/Inc/stm32f0xx_ll_gpio.h ****   *         @arg @ref LL_GPIO_PIN_4
 744:Drivers/STM32F0xx_HAL_Driver/Inc/stm32f0xx_ll_gpio.h ****   *         @arg @ref LL_GPIO_PIN_5
 745:Drivers/STM32F0xx_HAL_Driver/Inc/stm32f0xx_ll_gpio.h ****   *         @arg @ref LL_GPIO_PIN_6
 746:Drivers/STM32F0xx_HAL_Driver/Inc/stm32f0xx_ll_gpio.h ****   *         @arg @ref LL_GPIO_PIN_7
 747:Drivers/STM32F0xx_HAL_Driver/Inc/stm32f0xx_ll_gpio.h ****   *         @arg @ref LL_GPIO_PIN_8
 748:Drivers/STM32F0xx_HAL_Driver/Inc/stm32f0xx_ll_gpio.h ****   *         @arg @ref LL_GPIO_PIN_9
 749:Drivers/STM32F0xx_HAL_Driver/Inc/stm32f0xx_ll_gpio.h ****   *         @arg @ref LL_GPIO_PIN_10
 750:Drivers/STM32F0xx_HAL_Driver/Inc/stm32f0xx_ll_gpio.h ****   *         @arg @ref LL_GPIO_PIN_11
 751:Drivers/STM32F0xx_HAL_Driver/Inc/stm32f0xx_ll_gpio.h ****   *         @arg @ref LL_GPIO_PIN_12
 752:Drivers/STM32F0xx_HAL_Driver/Inc/stm32f0xx_ll_gpio.h ****   *         @arg @ref LL_GPIO_PIN_13
 753:Drivers/STM32F0xx_HAL_Driver/Inc/stm32f0xx_ll_gpio.h ****   *         @arg @ref LL_GPIO_PIN_14
 754:Drivers/STM32F0xx_HAL_Driver/Inc/stm32f0xx_ll_gpio.h ****   *         @arg @ref LL_GPIO_PIN_15
 755:Drivers/STM32F0xx_HAL_Driver/Inc/stm32f0xx_ll_gpio.h ****   *         @arg @ref LL_GPIO_PIN_ALL
 756:Drivers/STM32F0xx_HAL_Driver/Inc/stm32f0xx_ll_gpio.h ****   * @retval State of bit (1 or 0).
 757:Drivers/STM32F0xx_HAL_Driver/Inc/stm32f0xx_ll_gpio.h ****   */
 758:Drivers/STM32F0xx_HAL_Driver/Inc/stm32f0xx_ll_gpio.h **** __STATIC_INLINE uint32_t LL_GPIO_IsInputPinSet(GPIO_TypeDef *GPIOx, uint32_t PinMask)
 759:Drivers/STM32F0xx_HAL_Driver/Inc/stm32f0xx_ll_gpio.h **** {
 760:Drivers/STM32F0xx_HAL_Driver/Inc/stm32f0xx_ll_gpio.h ****   return (READ_BIT(GPIOx->IDR, PinMask) == (PinMask));
 761:Drivers/STM32F0xx_HAL_Driver/Inc/stm32f0xx_ll_gpio.h **** }
 762:Drivers/STM32F0xx_HAL_Driver/Inc/stm32f0xx_ll_gpio.h **** 
 763:Drivers/STM32F0xx_HAL_Driver/Inc/stm32f0xx_ll_gpio.h **** /**
 764:Drivers/STM32F0xx_HAL_Driver/Inc/stm32f0xx_ll_gpio.h ****   * @brief  Write output data register for the port.
 765:Drivers/STM32F0xx_HAL_Driver/Inc/stm32f0xx_ll_gpio.h ****   * @rmtoll ODR          ODy           LL_GPIO_WriteOutputPort
 766:Drivers/STM32F0xx_HAL_Driver/Inc/stm32f0xx_ll_gpio.h ****   * @param  GPIOx GPIO Port
 767:Drivers/STM32F0xx_HAL_Driver/Inc/stm32f0xx_ll_gpio.h ****   * @param  PortValue Level value for each pin of the port
 768:Drivers/STM32F0xx_HAL_Driver/Inc/stm32f0xx_ll_gpio.h ****   * @retval None
 769:Drivers/STM32F0xx_HAL_Driver/Inc/stm32f0xx_ll_gpio.h ****   */
 770:Drivers/STM32F0xx_HAL_Driver/Inc/stm32f0xx_ll_gpio.h **** __STATIC_INLINE void LL_GPIO_WriteOutputPort(GPIO_TypeDef *GPIOx, uint32_t PortValue)
 771:Drivers/STM32F0xx_HAL_Driver/Inc/stm32f0xx_ll_gpio.h **** {
 772:Drivers/STM32F0xx_HAL_Driver/Inc/stm32f0xx_ll_gpio.h ****   WRITE_REG(GPIOx->ODR, PortValue);
 773:Drivers/STM32F0xx_HAL_Driver/Inc/stm32f0xx_ll_gpio.h **** }
 774:Drivers/STM32F0xx_HAL_Driver/Inc/stm32f0xx_ll_gpio.h **** 
 775:Drivers/STM32F0xx_HAL_Driver/Inc/stm32f0xx_ll_gpio.h **** /**
 776:Drivers/STM32F0xx_HAL_Driver/Inc/stm32f0xx_ll_gpio.h ****   * @brief  Return full output data register value for a dedicated port.
 777:Drivers/STM32F0xx_HAL_Driver/Inc/stm32f0xx_ll_gpio.h ****   * @rmtoll ODR          ODy           LL_GPIO_ReadOutputPort
 778:Drivers/STM32F0xx_HAL_Driver/Inc/stm32f0xx_ll_gpio.h ****   * @param  GPIOx GPIO Port
 779:Drivers/STM32F0xx_HAL_Driver/Inc/stm32f0xx_ll_gpio.h ****   * @retval Output data register value of port
 780:Drivers/STM32F0xx_HAL_Driver/Inc/stm32f0xx_ll_gpio.h ****   */
 781:Drivers/STM32F0xx_HAL_Driver/Inc/stm32f0xx_ll_gpio.h **** __STATIC_INLINE uint32_t LL_GPIO_ReadOutputPort(GPIO_TypeDef *GPIOx)
 782:Drivers/STM32F0xx_HAL_Driver/Inc/stm32f0xx_ll_gpio.h **** {
 783:Drivers/STM32F0xx_HAL_Driver/Inc/stm32f0xx_ll_gpio.h ****   return (uint32_t)(READ_REG(GPIOx->ODR));
ARM GAS  /tmp/ccfHzE7k.s 			page 21


 784:Drivers/STM32F0xx_HAL_Driver/Inc/stm32f0xx_ll_gpio.h **** }
 785:Drivers/STM32F0xx_HAL_Driver/Inc/stm32f0xx_ll_gpio.h **** 
 786:Drivers/STM32F0xx_HAL_Driver/Inc/stm32f0xx_ll_gpio.h **** /**
 787:Drivers/STM32F0xx_HAL_Driver/Inc/stm32f0xx_ll_gpio.h ****   * @brief  Return if input data level for several pins of dedicated port is high or low.
 788:Drivers/STM32F0xx_HAL_Driver/Inc/stm32f0xx_ll_gpio.h ****   * @rmtoll ODR          ODy           LL_GPIO_IsOutputPinSet
 789:Drivers/STM32F0xx_HAL_Driver/Inc/stm32f0xx_ll_gpio.h ****   * @param  GPIOx GPIO Port
 790:Drivers/STM32F0xx_HAL_Driver/Inc/stm32f0xx_ll_gpio.h ****   * @param  PinMask This parameter can be a combination of the following values:
 791:Drivers/STM32F0xx_HAL_Driver/Inc/stm32f0xx_ll_gpio.h ****   *         @arg @ref LL_GPIO_PIN_0
 792:Drivers/STM32F0xx_HAL_Driver/Inc/stm32f0xx_ll_gpio.h ****   *         @arg @ref LL_GPIO_PIN_1
 793:Drivers/STM32F0xx_HAL_Driver/Inc/stm32f0xx_ll_gpio.h ****   *         @arg @ref LL_GPIO_PIN_2
 794:Drivers/STM32F0xx_HAL_Driver/Inc/stm32f0xx_ll_gpio.h ****   *         @arg @ref LL_GPIO_PIN_3
 795:Drivers/STM32F0xx_HAL_Driver/Inc/stm32f0xx_ll_gpio.h ****   *         @arg @ref LL_GPIO_PIN_4
 796:Drivers/STM32F0xx_HAL_Driver/Inc/stm32f0xx_ll_gpio.h ****   *         @arg @ref LL_GPIO_PIN_5
 797:Drivers/STM32F0xx_HAL_Driver/Inc/stm32f0xx_ll_gpio.h ****   *         @arg @ref LL_GPIO_PIN_6
 798:Drivers/STM32F0xx_HAL_Driver/Inc/stm32f0xx_ll_gpio.h ****   *         @arg @ref LL_GPIO_PIN_7
 799:Drivers/STM32F0xx_HAL_Driver/Inc/stm32f0xx_ll_gpio.h ****   *         @arg @ref LL_GPIO_PIN_8
 800:Drivers/STM32F0xx_HAL_Driver/Inc/stm32f0xx_ll_gpio.h ****   *         @arg @ref LL_GPIO_PIN_9
 801:Drivers/STM32F0xx_HAL_Driver/Inc/stm32f0xx_ll_gpio.h ****   *         @arg @ref LL_GPIO_PIN_10
 802:Drivers/STM32F0xx_HAL_Driver/Inc/stm32f0xx_ll_gpio.h ****   *         @arg @ref LL_GPIO_PIN_11
 803:Drivers/STM32F0xx_HAL_Driver/Inc/stm32f0xx_ll_gpio.h ****   *         @arg @ref LL_GPIO_PIN_12
 804:Drivers/STM32F0xx_HAL_Driver/Inc/stm32f0xx_ll_gpio.h ****   *         @arg @ref LL_GPIO_PIN_13
 805:Drivers/STM32F0xx_HAL_Driver/Inc/stm32f0xx_ll_gpio.h ****   *         @arg @ref LL_GPIO_PIN_14
 806:Drivers/STM32F0xx_HAL_Driver/Inc/stm32f0xx_ll_gpio.h ****   *         @arg @ref LL_GPIO_PIN_15
 807:Drivers/STM32F0xx_HAL_Driver/Inc/stm32f0xx_ll_gpio.h ****   *         @arg @ref LL_GPIO_PIN_ALL
 808:Drivers/STM32F0xx_HAL_Driver/Inc/stm32f0xx_ll_gpio.h ****   * @retval State of bit (1 or 0).
 809:Drivers/STM32F0xx_HAL_Driver/Inc/stm32f0xx_ll_gpio.h ****   */
 810:Drivers/STM32F0xx_HAL_Driver/Inc/stm32f0xx_ll_gpio.h **** __STATIC_INLINE uint32_t LL_GPIO_IsOutputPinSet(GPIO_TypeDef *GPIOx, uint32_t PinMask)
 811:Drivers/STM32F0xx_HAL_Driver/Inc/stm32f0xx_ll_gpio.h **** {
 812:Drivers/STM32F0xx_HAL_Driver/Inc/stm32f0xx_ll_gpio.h ****   return (READ_BIT(GPIOx->ODR, PinMask) == (PinMask));
 813:Drivers/STM32F0xx_HAL_Driver/Inc/stm32f0xx_ll_gpio.h **** }
 814:Drivers/STM32F0xx_HAL_Driver/Inc/stm32f0xx_ll_gpio.h **** 
 815:Drivers/STM32F0xx_HAL_Driver/Inc/stm32f0xx_ll_gpio.h **** /**
 816:Drivers/STM32F0xx_HAL_Driver/Inc/stm32f0xx_ll_gpio.h ****   * @brief  Set several pins to high level on dedicated gpio port.
 817:Drivers/STM32F0xx_HAL_Driver/Inc/stm32f0xx_ll_gpio.h ****   * @rmtoll BSRR         BSy           LL_GPIO_SetOutputPin
 818:Drivers/STM32F0xx_HAL_Driver/Inc/stm32f0xx_ll_gpio.h ****   * @param  GPIOx GPIO Port
 819:Drivers/STM32F0xx_HAL_Driver/Inc/stm32f0xx_ll_gpio.h ****   * @param  PinMask This parameter can be a combination of the following values:
 820:Drivers/STM32F0xx_HAL_Driver/Inc/stm32f0xx_ll_gpio.h ****   *         @arg @ref LL_GPIO_PIN_0
 821:Drivers/STM32F0xx_HAL_Driver/Inc/stm32f0xx_ll_gpio.h ****   *         @arg @ref LL_GPIO_PIN_1
 822:Drivers/STM32F0xx_HAL_Driver/Inc/stm32f0xx_ll_gpio.h ****   *         @arg @ref LL_GPIO_PIN_2
 823:Drivers/STM32F0xx_HAL_Driver/Inc/stm32f0xx_ll_gpio.h ****   *         @arg @ref LL_GPIO_PIN_3
 824:Drivers/STM32F0xx_HAL_Driver/Inc/stm32f0xx_ll_gpio.h ****   *         @arg @ref LL_GPIO_PIN_4
 825:Drivers/STM32F0xx_HAL_Driver/Inc/stm32f0xx_ll_gpio.h ****   *         @arg @ref LL_GPIO_PIN_5
 826:Drivers/STM32F0xx_HAL_Driver/Inc/stm32f0xx_ll_gpio.h ****   *         @arg @ref LL_GPIO_PIN_6
 827:Drivers/STM32F0xx_HAL_Driver/Inc/stm32f0xx_ll_gpio.h ****   *         @arg @ref LL_GPIO_PIN_7
 828:Drivers/STM32F0xx_HAL_Driver/Inc/stm32f0xx_ll_gpio.h ****   *         @arg @ref LL_GPIO_PIN_8
 829:Drivers/STM32F0xx_HAL_Driver/Inc/stm32f0xx_ll_gpio.h ****   *         @arg @ref LL_GPIO_PIN_9
 830:Drivers/STM32F0xx_HAL_Driver/Inc/stm32f0xx_ll_gpio.h ****   *         @arg @ref LL_GPIO_PIN_10
 831:Drivers/STM32F0xx_HAL_Driver/Inc/stm32f0xx_ll_gpio.h ****   *         @arg @ref LL_GPIO_PIN_11
 832:Drivers/STM32F0xx_HAL_Driver/Inc/stm32f0xx_ll_gpio.h ****   *         @arg @ref LL_GPIO_PIN_12
 833:Drivers/STM32F0xx_HAL_Driver/Inc/stm32f0xx_ll_gpio.h ****   *         @arg @ref LL_GPIO_PIN_13
 834:Drivers/STM32F0xx_HAL_Driver/Inc/stm32f0xx_ll_gpio.h ****   *         @arg @ref LL_GPIO_PIN_14
 835:Drivers/STM32F0xx_HAL_Driver/Inc/stm32f0xx_ll_gpio.h ****   *         @arg @ref LL_GPIO_PIN_15
 836:Drivers/STM32F0xx_HAL_Driver/Inc/stm32f0xx_ll_gpio.h ****   *         @arg @ref LL_GPIO_PIN_ALL
 837:Drivers/STM32F0xx_HAL_Driver/Inc/stm32f0xx_ll_gpio.h ****   * @retval None
 838:Drivers/STM32F0xx_HAL_Driver/Inc/stm32f0xx_ll_gpio.h ****   */
 839:Drivers/STM32F0xx_HAL_Driver/Inc/stm32f0xx_ll_gpio.h **** __STATIC_INLINE void LL_GPIO_SetOutputPin(GPIO_TypeDef *GPIOx, uint32_t PinMask)
 840:Drivers/STM32F0xx_HAL_Driver/Inc/stm32f0xx_ll_gpio.h **** {
ARM GAS  /tmp/ccfHzE7k.s 			page 22


 841:Drivers/STM32F0xx_HAL_Driver/Inc/stm32f0xx_ll_gpio.h ****   WRITE_REG(GPIOx->BSRR, PinMask);
  83              		.loc 3 841 0
  84 0030 0124     		movs	r4, #1
  85              	.LBE30:
  86              	.LBE29:
  87              	.LBB33:
  88              	.LBB26:
  89              		.loc 2 230 0
  90 0032 0143     		orrs	r1, r0
  91 0034 5961     		str	r1, [r3, #20]
  92              	.LBE26:
  93              	.LBE33:
  94              	.LBB34:
  95              	.LBB35:
  96 0036 8021     		movs	r1, #128
  97              	.LBE35:
  98              	.LBE34:
  99              	.LBB40:
 100              	.LBB27:
 231:Drivers/STM32F0xx_HAL_Driver/Inc/stm32f0xx_ll_bus.h ****   /* Delay after an RCC peripheral clock enabling */
 232:Drivers/STM32F0xx_HAL_Driver/Inc/stm32f0xx_ll_bus.h ****   tmpreg = READ_BIT(RCC->AHBENR, Periphs);
 101              		.loc 2 232 0
 102 0038 5A69     		ldr	r2, [r3, #20]
 103              	.LBE27:
 104              	.LBE40:
 105              	.LBB41:
 106              	.LBB36:
 230:Drivers/STM32F0xx_HAL_Driver/Inc/stm32f0xx_ll_bus.h ****   /* Delay after an RCC peripheral clock enabling */
 107              		.loc 2 230 0
 108 003a 8902     		lsls	r1, r1, #10
 109              	.LBE36:
 110              	.LBE41:
 111              	.LBB42:
 112              	.LBB28:
 113              		.loc 2 232 0
 114 003c 0240     		ands	r2, r0
 115 003e 0192     		str	r2, [sp, #4]
 233:Drivers/STM32F0xx_HAL_Driver/Inc/stm32f0xx_ll_bus.h ****   (void)tmpreg;
 116              		.loc 2 233 0
 117 0040 019A     		ldr	r2, [sp, #4]
 118              	.LVL2:
 119              	.LBE28:
 120              	.LBE42:
 121              	.LBB43:
 122              	.LBB37:
 230:Drivers/STM32F0xx_HAL_Driver/Inc/stm32f0xx_ll_bus.h ****   /* Delay after an RCC peripheral clock enabling */
 123              		.loc 2 230 0
 124 0042 5A69     		ldr	r2, [r3, #20]
 125              	.LBE37:
 126              	.LBE43:
 127              	.LBB44:
 128              	.LBB31:
 129              		.loc 3 841 0
 130 0044 3A4D     		ldr	r5, .L2+4
 131              	.LBE31:
 132              	.LBE44:
 133              	.LBB45:
ARM GAS  /tmp/ccfHzE7k.s 			page 23


 134              	.LBB38:
 230:Drivers/STM32F0xx_HAL_Driver/Inc/stm32f0xx_ll_bus.h ****   /* Delay after an RCC peripheral clock enabling */
 135              		.loc 2 230 0
 136 0046 0A43     		orrs	r2, r1
 137 0048 5A61     		str	r2, [r3, #20]
 232:Drivers/STM32F0xx_HAL_Driver/Inc/stm32f0xx_ll_bus.h ****   (void)tmpreg;
 138              		.loc 2 232 0
 139 004a 5B69     		ldr	r3, [r3, #20]
 140              	.LBE38:
 141              	.LBE45:
  46:Core/Src/gpio.c **** 
  47:Core/Src/gpio.c ****   /* GPIO Ports Clock Enable */
  48:Core/Src/gpio.c ****   LL_AHB1_GRP1_EnableClock(LL_AHB1_GRP1_PERIPH_GPIOC);
  49:Core/Src/gpio.c ****   LL_AHB1_GRP1_EnableClock(LL_AHB1_GRP1_PERIPH_GPIOA);
  50:Core/Src/gpio.c **** 
  51:Core/Src/gpio.c ****   /**/
  52:Core/Src/gpio.c ****   LL_GPIO_SetOutputPin(ENABLE_GPIO_Port, ENABLE_Pin);
  53:Core/Src/gpio.c **** 
  54:Core/Src/gpio.c ****   /**/
  55:Core/Src/gpio.c ****   LL_GPIO_ResetOutputPin(DIR_0_GPIO_Port, DIR_0_Pin);
  56:Core/Src/gpio.c **** 
  57:Core/Src/gpio.c ****   /**/
  58:Core/Src/gpio.c ****   LL_GPIO_ResetOutputPin(DIR_1_GPIO_Port, DIR_1_Pin);
  59:Core/Src/gpio.c **** 
  60:Core/Src/gpio.c ****   /**/
  61:Core/Src/gpio.c ****   LL_GPIO_ResetOutputPin(DIR_2_GPIO_Port, DIR_2_Pin);
  62:Core/Src/gpio.c **** 
  63:Core/Src/gpio.c ****   /**/
  64:Core/Src/gpio.c ****   LL_GPIO_ResetOutputPin(LD4_GPIO_Port, LD4_Pin);
  65:Core/Src/gpio.c **** 
  66:Core/Src/gpio.c ****   /**/
  67:Core/Src/gpio.c ****   LL_GPIO_ResetOutputPin(LD3_GPIO_Port, LD3_Pin);
  68:Core/Src/gpio.c **** 
  69:Core/Src/gpio.c ****   /**/
  70:Core/Src/gpio.c ****   GPIO_InitStruct.Pin = ENABLE_Pin;
  71:Core/Src/gpio.c ****   GPIO_InitStruct.Mode = LL_GPIO_MODE_OUTPUT;
  72:Core/Src/gpio.c ****   GPIO_InitStruct.Speed = LL_GPIO_SPEED_FREQ_LOW;
  73:Core/Src/gpio.c ****   GPIO_InitStruct.OutputType = LL_GPIO_OUTPUT_PUSHPULL;
  74:Core/Src/gpio.c ****   GPIO_InitStruct.Pull = LL_GPIO_PULL_UP;
  75:Core/Src/gpio.c ****   LL_GPIO_Init(ENABLE_GPIO_Port, &GPIO_InitStruct);
 142              		.loc 1 75 0
 143 004c 2800     		movs	r0, r5
 144              	.LBB46:
 145              	.LBB39:
 232:Drivers/STM32F0xx_HAL_Driver/Inc/stm32f0xx_ll_bus.h ****   (void)tmpreg;
 146              		.loc 2 232 0
 147 004e 0B40     		ands	r3, r1
 148 0050 0093     		str	r3, [sp]
 149              		.loc 2 233 0
 150 0052 009B     		ldr	r3, [sp]
 151              	.LVL3:
 152              	.LBE39:
 153              	.LBE46:
 154              	.LBB47:
 155              	.LBB48:
 842:Drivers/STM32F0xx_HAL_Driver/Inc/stm32f0xx_ll_gpio.h **** }
 843:Drivers/STM32F0xx_HAL_Driver/Inc/stm32f0xx_ll_gpio.h **** 
ARM GAS  /tmp/ccfHzE7k.s 			page 24


 844:Drivers/STM32F0xx_HAL_Driver/Inc/stm32f0xx_ll_gpio.h **** /**
 845:Drivers/STM32F0xx_HAL_Driver/Inc/stm32f0xx_ll_gpio.h ****   * @brief  Set several pins to low level on dedicated gpio port.
 846:Drivers/STM32F0xx_HAL_Driver/Inc/stm32f0xx_ll_gpio.h ****   * @rmtoll BRR          BRy           LL_GPIO_ResetOutputPin
 847:Drivers/STM32F0xx_HAL_Driver/Inc/stm32f0xx_ll_gpio.h ****   * @param  GPIOx GPIO Port
 848:Drivers/STM32F0xx_HAL_Driver/Inc/stm32f0xx_ll_gpio.h ****   * @param  PinMask This parameter can be a combination of the following values:
 849:Drivers/STM32F0xx_HAL_Driver/Inc/stm32f0xx_ll_gpio.h ****   *         @arg @ref LL_GPIO_PIN_0
 850:Drivers/STM32F0xx_HAL_Driver/Inc/stm32f0xx_ll_gpio.h ****   *         @arg @ref LL_GPIO_PIN_1
 851:Drivers/STM32F0xx_HAL_Driver/Inc/stm32f0xx_ll_gpio.h ****   *         @arg @ref LL_GPIO_PIN_2
 852:Drivers/STM32F0xx_HAL_Driver/Inc/stm32f0xx_ll_gpio.h ****   *         @arg @ref LL_GPIO_PIN_3
 853:Drivers/STM32F0xx_HAL_Driver/Inc/stm32f0xx_ll_gpio.h ****   *         @arg @ref LL_GPIO_PIN_4
 854:Drivers/STM32F0xx_HAL_Driver/Inc/stm32f0xx_ll_gpio.h ****   *         @arg @ref LL_GPIO_PIN_5
 855:Drivers/STM32F0xx_HAL_Driver/Inc/stm32f0xx_ll_gpio.h ****   *         @arg @ref LL_GPIO_PIN_6
 856:Drivers/STM32F0xx_HAL_Driver/Inc/stm32f0xx_ll_gpio.h ****   *         @arg @ref LL_GPIO_PIN_7
 857:Drivers/STM32F0xx_HAL_Driver/Inc/stm32f0xx_ll_gpio.h ****   *         @arg @ref LL_GPIO_PIN_8
 858:Drivers/STM32F0xx_HAL_Driver/Inc/stm32f0xx_ll_gpio.h ****   *         @arg @ref LL_GPIO_PIN_9
 859:Drivers/STM32F0xx_HAL_Driver/Inc/stm32f0xx_ll_gpio.h ****   *         @arg @ref LL_GPIO_PIN_10
 860:Drivers/STM32F0xx_HAL_Driver/Inc/stm32f0xx_ll_gpio.h ****   *         @arg @ref LL_GPIO_PIN_11
 861:Drivers/STM32F0xx_HAL_Driver/Inc/stm32f0xx_ll_gpio.h ****   *         @arg @ref LL_GPIO_PIN_12
 862:Drivers/STM32F0xx_HAL_Driver/Inc/stm32f0xx_ll_gpio.h ****   *         @arg @ref LL_GPIO_PIN_13
 863:Drivers/STM32F0xx_HAL_Driver/Inc/stm32f0xx_ll_gpio.h ****   *         @arg @ref LL_GPIO_PIN_14
 864:Drivers/STM32F0xx_HAL_Driver/Inc/stm32f0xx_ll_gpio.h ****   *         @arg @ref LL_GPIO_PIN_15
 865:Drivers/STM32F0xx_HAL_Driver/Inc/stm32f0xx_ll_gpio.h ****   *         @arg @ref LL_GPIO_PIN_ALL
 866:Drivers/STM32F0xx_HAL_Driver/Inc/stm32f0xx_ll_gpio.h ****   * @retval None
 867:Drivers/STM32F0xx_HAL_Driver/Inc/stm32f0xx_ll_gpio.h ****   */
 868:Drivers/STM32F0xx_HAL_Driver/Inc/stm32f0xx_ll_gpio.h **** __STATIC_INLINE void LL_GPIO_ResetOutputPin(GPIO_TypeDef *GPIOx, uint32_t PinMask)
 869:Drivers/STM32F0xx_HAL_Driver/Inc/stm32f0xx_ll_gpio.h **** {
 870:Drivers/STM32F0xx_HAL_Driver/Inc/stm32f0xx_ll_gpio.h ****   WRITE_REG(GPIOx->BRR, PinMask);
 156              		.loc 3 870 0
 157 0054 0223     		movs	r3, #2
 158              	.LBE48:
 159              	.LBE47:
 160              	.LBB50:
 161              	.LBB32:
 841:Drivers/STM32F0xx_HAL_Driver/Inc/stm32f0xx_ll_gpio.h **** }
 162              		.loc 3 841 0
 163 0056 AC61     		str	r4, [r5, #24]
 164              	.LVL4:
 165              	.LBE32:
 166              	.LBE50:
 167              	.LBB51:
 168              	.LBB49:
 169              		.loc 3 870 0
 170 0058 9946     		mov	r9, r3
 171 005a AB62     		str	r3, [r5, #40]
 172              	.LVL5:
 173              	.LBE49:
 174              	.LBE51:
 175              	.LBB52:
 176              	.LBB53:
 177 005c 0233     		adds	r3, r3, #2
 178 005e AB62     		str	r3, [r5, #40]
 179              	.LVL6:
 180 0060 9B46     		mov	fp, r3
 181              	.LBE53:
 182              	.LBE52:
 183              	.LBB54:
 184              	.LBB55:
ARM GAS  /tmp/ccfHzE7k.s 			page 25


 185 0062 5346     		mov	r3, r10
 186 0064 AB62     		str	r3, [r5, #40]
 187              	.LVL7:
 188              	.LBE55:
 189              	.LBE54:
 190              	.LBB56:
 191              	.LBB57:
 192 0066 F833     		adds	r3, r3, #248
 193 0068 AB62     		str	r3, [r5, #40]
 194              	.LVL8:
 195              	.LBE57:
 196              	.LBE56:
 197              	.LBB58:
 198              	.LBB59:
 199 006a 0133     		adds	r3, r3, #1
 200 006c FF33     		adds	r3, r3, #255
 201 006e AB62     		str	r3, [r5, #40]
 202              	.LVL9:
 203              	.LBE59:
 204              	.LBE58:
 205              		.loc 1 75 0
 206 0070 04A9     		add	r1, sp, #16
  70:Core/Src/gpio.c ****   GPIO_InitStruct.Mode = LL_GPIO_MODE_OUTPUT;
 207              		.loc 1 70 0
 208 0072 0494     		str	r4, [sp, #16]
  71:Core/Src/gpio.c ****   GPIO_InitStruct.Speed = LL_GPIO_SPEED_FREQ_LOW;
 209              		.loc 1 71 0
 210 0074 0594     		str	r4, [sp, #20]
  74:Core/Src/gpio.c ****   LL_GPIO_Init(ENABLE_GPIO_Port, &GPIO_InitStruct);
 211              		.loc 1 74 0
 212 0076 0894     		str	r4, [sp, #32]
 213              		.loc 1 75 0
 214 0078 FFF7FEFF 		bl	LL_GPIO_Init
 215              	.LVL10:
  76:Core/Src/gpio.c **** 
  77:Core/Src/gpio.c ****   /**/
  78:Core/Src/gpio.c ****   GPIO_InitStruct.Pin = DIR_0_Pin;
 216              		.loc 1 78 0
 217 007c 4B46     		mov	r3, r9
 218 007e 0493     		str	r3, [sp, #16]
  79:Core/Src/gpio.c ****   GPIO_InitStruct.Mode = LL_GPIO_MODE_OUTPUT;
  80:Core/Src/gpio.c ****   GPIO_InitStruct.Speed = LL_GPIO_SPEED_FREQ_HIGH;
 219              		.loc 1 80 0
 220 0080 0133     		adds	r3, r3, #1
  81:Core/Src/gpio.c ****   GPIO_InitStruct.OutputType = LL_GPIO_OUTPUT_PUSHPULL;
 221              		.loc 1 81 0
 222 0082 0026     		movs	r6, #0
  80:Core/Src/gpio.c ****   GPIO_InitStruct.OutputType = LL_GPIO_OUTPUT_PUSHPULL;
 223              		.loc 1 80 0
 224 0084 9846     		mov	r8, r3
 225 0086 0693     		str	r3, [sp, #24]
  82:Core/Src/gpio.c ****   GPIO_InitStruct.Pull = LL_GPIO_PULL_DOWN;
 226              		.loc 1 82 0
 227 0088 4B46     		mov	r3, r9
  83:Core/Src/gpio.c ****   LL_GPIO_Init(DIR_0_GPIO_Port, &GPIO_InitStruct);
 228              		.loc 1 83 0
 229 008a 04A9     		add	r1, sp, #16
ARM GAS  /tmp/ccfHzE7k.s 			page 26


 230 008c 2800     		movs	r0, r5
  82:Core/Src/gpio.c ****   GPIO_InitStruct.Pull = LL_GPIO_PULL_DOWN;
 231              		.loc 1 82 0
 232 008e 0893     		str	r3, [sp, #32]
  79:Core/Src/gpio.c ****   GPIO_InitStruct.Speed = LL_GPIO_SPEED_FREQ_HIGH;
 233              		.loc 1 79 0
 234 0090 0594     		str	r4, [sp, #20]
  81:Core/Src/gpio.c ****   GPIO_InitStruct.Pull = LL_GPIO_PULL_DOWN;
 235              		.loc 1 81 0
 236 0092 0796     		str	r6, [sp, #28]
 237              		.loc 1 83 0
 238 0094 FFF7FEFF 		bl	LL_GPIO_Init
 239              	.LVL11:
  84:Core/Src/gpio.c **** 
  85:Core/Src/gpio.c ****   /**/
  86:Core/Src/gpio.c ****   GPIO_InitStruct.Pin = DIR_1_Pin;
 240              		.loc 1 86 0
 241 0098 5B46     		mov	r3, fp
 242 009a 0493     		str	r3, [sp, #16]
  87:Core/Src/gpio.c ****   GPIO_InitStruct.Mode = LL_GPIO_MODE_OUTPUT;
  88:Core/Src/gpio.c ****   GPIO_InitStruct.Speed = LL_GPIO_SPEED_FREQ_HIGH;
 243              		.loc 1 88 0
 244 009c 4346     		mov	r3, r8
 245 009e 0693     		str	r3, [sp, #24]
  89:Core/Src/gpio.c ****   GPIO_InitStruct.OutputType = LL_GPIO_OUTPUT_PUSHPULL;
  90:Core/Src/gpio.c ****   GPIO_InitStruct.Pull = LL_GPIO_PULL_DOWN;
 246              		.loc 1 90 0
 247 00a0 4B46     		mov	r3, r9
  91:Core/Src/gpio.c ****   LL_GPIO_Init(DIR_1_GPIO_Port, &GPIO_InitStruct);
 248              		.loc 1 91 0
 249 00a2 04A9     		add	r1, sp, #16
 250 00a4 2800     		movs	r0, r5
  90:Core/Src/gpio.c ****   LL_GPIO_Init(DIR_1_GPIO_Port, &GPIO_InitStruct);
 251              		.loc 1 90 0
 252 00a6 0893     		str	r3, [sp, #32]
  87:Core/Src/gpio.c ****   GPIO_InitStruct.Speed = LL_GPIO_SPEED_FREQ_HIGH;
 253              		.loc 1 87 0
 254 00a8 0594     		str	r4, [sp, #20]
  89:Core/Src/gpio.c ****   GPIO_InitStruct.Pull = LL_GPIO_PULL_DOWN;
 255              		.loc 1 89 0
 256 00aa 0796     		str	r6, [sp, #28]
 257              		.loc 1 91 0
 258 00ac FFF7FEFF 		bl	LL_GPIO_Init
 259              	.LVL12:
  92:Core/Src/gpio.c **** 
  93:Core/Src/gpio.c ****   /**/
  94:Core/Src/gpio.c ****   GPIO_InitStruct.Pin = DIR_2_Pin;
 260              		.loc 1 94 0
 261 00b0 5346     		mov	r3, r10
 262 00b2 0493     		str	r3, [sp, #16]
  95:Core/Src/gpio.c ****   GPIO_InitStruct.Mode = LL_GPIO_MODE_OUTPUT;
  96:Core/Src/gpio.c ****   GPIO_InitStruct.Speed = LL_GPIO_SPEED_FREQ_HIGH;
 263              		.loc 1 96 0
 264 00b4 4346     		mov	r3, r8
 265 00b6 0693     		str	r3, [sp, #24]
  97:Core/Src/gpio.c ****   GPIO_InitStruct.OutputType = LL_GPIO_OUTPUT_PUSHPULL;
  98:Core/Src/gpio.c ****   GPIO_InitStruct.Pull = LL_GPIO_PULL_DOWN;
ARM GAS  /tmp/ccfHzE7k.s 			page 27


 266              		.loc 1 98 0
 267 00b8 4B46     		mov	r3, r9
  99:Core/Src/gpio.c ****   LL_GPIO_Init(DIR_2_GPIO_Port, &GPIO_InitStruct);
 268              		.loc 1 99 0
 269 00ba 04A9     		add	r1, sp, #16
 270 00bc 2800     		movs	r0, r5
  98:Core/Src/gpio.c ****   LL_GPIO_Init(DIR_2_GPIO_Port, &GPIO_InitStruct);
 271              		.loc 1 98 0
 272 00be 0893     		str	r3, [sp, #32]
  95:Core/Src/gpio.c ****   GPIO_InitStruct.Speed = LL_GPIO_SPEED_FREQ_HIGH;
 273              		.loc 1 95 0
 274 00c0 0594     		str	r4, [sp, #20]
  97:Core/Src/gpio.c ****   GPIO_InitStruct.Pull = LL_GPIO_PULL_DOWN;
 275              		.loc 1 97 0
 276 00c2 0796     		str	r6, [sp, #28]
 277              		.loc 1 99 0
 278 00c4 FFF7FEFF 		bl	LL_GPIO_Init
 279              	.LVL13:
 100:Core/Src/gpio.c **** 
 101:Core/Src/gpio.c ****   /**/
 102:Core/Src/gpio.c ****   GPIO_InitStruct.Pin = LD4_Pin;
 280              		.loc 1 102 0
 281 00c8 8023     		movs	r3, #128
 103:Core/Src/gpio.c ****   GPIO_InitStruct.Mode = LL_GPIO_MODE_OUTPUT;
 104:Core/Src/gpio.c ****   GPIO_InitStruct.Speed = LL_GPIO_SPEED_FREQ_LOW;
 105:Core/Src/gpio.c ****   GPIO_InitStruct.OutputType = LL_GPIO_OUTPUT_PUSHPULL;
 106:Core/Src/gpio.c ****   GPIO_InitStruct.Pull = LL_GPIO_PULL_NO;
 107:Core/Src/gpio.c ****   LL_GPIO_Init(LD4_GPIO_Port, &GPIO_InitStruct);
 282              		.loc 1 107 0
 283 00ca 04A9     		add	r1, sp, #16
 102:Core/Src/gpio.c ****   GPIO_InitStruct.Mode = LL_GPIO_MODE_OUTPUT;
 284              		.loc 1 102 0
 285 00cc 5B00     		lsls	r3, r3, #1
 286              		.loc 1 107 0
 287 00ce 2800     		movs	r0, r5
 102:Core/Src/gpio.c ****   GPIO_InitStruct.Mode = LL_GPIO_MODE_OUTPUT;
 288              		.loc 1 102 0
 289 00d0 0493     		str	r3, [sp, #16]
 103:Core/Src/gpio.c ****   GPIO_InitStruct.Mode = LL_GPIO_MODE_OUTPUT;
 290              		.loc 1 103 0
 291 00d2 0594     		str	r4, [sp, #20]
 104:Core/Src/gpio.c ****   GPIO_InitStruct.OutputType = LL_GPIO_OUTPUT_PUSHPULL;
 292              		.loc 1 104 0
 293 00d4 0696     		str	r6, [sp, #24]
 105:Core/Src/gpio.c ****   GPIO_InitStruct.Pull = LL_GPIO_PULL_NO;
 294              		.loc 1 105 0
 295 00d6 0796     		str	r6, [sp, #28]
 106:Core/Src/gpio.c ****   LL_GPIO_Init(LD4_GPIO_Port, &GPIO_InitStruct);
 296              		.loc 1 106 0
 297 00d8 0896     		str	r6, [sp, #32]
 298              		.loc 1 107 0
 299 00da FFF7FEFF 		bl	LL_GPIO_Init
 300              	.LVL14:
 108:Core/Src/gpio.c **** 
 109:Core/Src/gpio.c ****   /**/
 110:Core/Src/gpio.c ****   GPIO_InitStruct.Pin = LD3_Pin;
 301              		.loc 1 110 0
ARM GAS  /tmp/ccfHzE7k.s 			page 28


 302 00de 8023     		movs	r3, #128
 111:Core/Src/gpio.c ****   GPIO_InitStruct.Mode = LL_GPIO_MODE_OUTPUT;
 112:Core/Src/gpio.c ****   GPIO_InitStruct.Speed = LL_GPIO_SPEED_FREQ_LOW;
 113:Core/Src/gpio.c ****   GPIO_InitStruct.OutputType = LL_GPIO_OUTPUT_PUSHPULL;
 114:Core/Src/gpio.c ****   GPIO_InitStruct.Pull = LL_GPIO_PULL_NO;
 115:Core/Src/gpio.c ****   LL_GPIO_Init(LD3_GPIO_Port, &GPIO_InitStruct);
 303              		.loc 1 115 0
 304 00e0 04A9     		add	r1, sp, #16
 110:Core/Src/gpio.c ****   GPIO_InitStruct.Mode = LL_GPIO_MODE_OUTPUT;
 305              		.loc 1 110 0
 306 00e2 9B00     		lsls	r3, r3, #2
 307              		.loc 1 115 0
 308 00e4 2800     		movs	r0, r5
 110:Core/Src/gpio.c ****   GPIO_InitStruct.Mode = LL_GPIO_MODE_OUTPUT;
 309              		.loc 1 110 0
 310 00e6 0493     		str	r3, [sp, #16]
 111:Core/Src/gpio.c ****   GPIO_InitStruct.Mode = LL_GPIO_MODE_OUTPUT;
 311              		.loc 1 111 0
 312 00e8 0594     		str	r4, [sp, #20]
 112:Core/Src/gpio.c ****   GPIO_InitStruct.OutputType = LL_GPIO_OUTPUT_PUSHPULL;
 313              		.loc 1 112 0
 314 00ea 0696     		str	r6, [sp, #24]
 113:Core/Src/gpio.c ****   GPIO_InitStruct.Pull = LL_GPIO_PULL_NO;
 315              		.loc 1 113 0
 316 00ec 0796     		str	r6, [sp, #28]
 114:Core/Src/gpio.c ****   LL_GPIO_Init(LD3_GPIO_Port, &GPIO_InitStruct);
 317              		.loc 1 114 0
 318 00ee 0896     		str	r6, [sp, #32]
 319              		.loc 1 115 0
 320 00f0 FFF7FEFF 		bl	LL_GPIO_Init
 321              	.LVL15:
 322              	.LBB60:
 323              	.LBB61:
 324              		.file 4 "Drivers/STM32F0xx_HAL_Driver/Inc/stm32f0xx_ll_system.h"
   1:Drivers/STM32F0xx_HAL_Driver/Inc/stm32f0xx_ll_system.h **** /**
   2:Drivers/STM32F0xx_HAL_Driver/Inc/stm32f0xx_ll_system.h ****   ******************************************************************************
   3:Drivers/STM32F0xx_HAL_Driver/Inc/stm32f0xx_ll_system.h ****   * @file    stm32f0xx_ll_system.h
   4:Drivers/STM32F0xx_HAL_Driver/Inc/stm32f0xx_ll_system.h ****   * @author  MCD Application Team
   5:Drivers/STM32F0xx_HAL_Driver/Inc/stm32f0xx_ll_system.h ****   * @brief   Header file of SYSTEM LL module.
   6:Drivers/STM32F0xx_HAL_Driver/Inc/stm32f0xx_ll_system.h ****   @verbatim
   7:Drivers/STM32F0xx_HAL_Driver/Inc/stm32f0xx_ll_system.h ****   ==============================================================================
   8:Drivers/STM32F0xx_HAL_Driver/Inc/stm32f0xx_ll_system.h ****                      ##### How to use this driver #####
   9:Drivers/STM32F0xx_HAL_Driver/Inc/stm32f0xx_ll_system.h ****   ==============================================================================
  10:Drivers/STM32F0xx_HAL_Driver/Inc/stm32f0xx_ll_system.h ****     [..]
  11:Drivers/STM32F0xx_HAL_Driver/Inc/stm32f0xx_ll_system.h ****     The LL SYSTEM driver contains a set of generic APIs that can be
  12:Drivers/STM32F0xx_HAL_Driver/Inc/stm32f0xx_ll_system.h ****     used by user:
  13:Drivers/STM32F0xx_HAL_Driver/Inc/stm32f0xx_ll_system.h ****       (+) Some of the FLASH features need to be handled in the SYSTEM file.
  14:Drivers/STM32F0xx_HAL_Driver/Inc/stm32f0xx_ll_system.h ****       (+) Access to DBGCMU registers
  15:Drivers/STM32F0xx_HAL_Driver/Inc/stm32f0xx_ll_system.h ****       (+) Access to SYSCFG registers
  16:Drivers/STM32F0xx_HAL_Driver/Inc/stm32f0xx_ll_system.h **** 
  17:Drivers/STM32F0xx_HAL_Driver/Inc/stm32f0xx_ll_system.h ****   @endverbatim
  18:Drivers/STM32F0xx_HAL_Driver/Inc/stm32f0xx_ll_system.h ****   ******************************************************************************
  19:Drivers/STM32F0xx_HAL_Driver/Inc/stm32f0xx_ll_system.h ****   * @attention
  20:Drivers/STM32F0xx_HAL_Driver/Inc/stm32f0xx_ll_system.h ****   *
  21:Drivers/STM32F0xx_HAL_Driver/Inc/stm32f0xx_ll_system.h ****   * <h2><center>&copy; Copyright (c) 2016 STMicroelectronics.
  22:Drivers/STM32F0xx_HAL_Driver/Inc/stm32f0xx_ll_system.h ****   * All rights reserved.</center></h2>
  23:Drivers/STM32F0xx_HAL_Driver/Inc/stm32f0xx_ll_system.h ****   *
ARM GAS  /tmp/ccfHzE7k.s 			page 29


  24:Drivers/STM32F0xx_HAL_Driver/Inc/stm32f0xx_ll_system.h ****   * This software component is licensed by ST under BSD 3-Clause license,
  25:Drivers/STM32F0xx_HAL_Driver/Inc/stm32f0xx_ll_system.h ****   * the "License"; You may not use this file except in compliance with the
  26:Drivers/STM32F0xx_HAL_Driver/Inc/stm32f0xx_ll_system.h ****   * License. You may obtain a copy of the License at:
  27:Drivers/STM32F0xx_HAL_Driver/Inc/stm32f0xx_ll_system.h ****   *                        opensource.org/licenses/BSD-3-Clause
  28:Drivers/STM32F0xx_HAL_Driver/Inc/stm32f0xx_ll_system.h ****   *
  29:Drivers/STM32F0xx_HAL_Driver/Inc/stm32f0xx_ll_system.h ****   ******************************************************************************
  30:Drivers/STM32F0xx_HAL_Driver/Inc/stm32f0xx_ll_system.h ****   */
  31:Drivers/STM32F0xx_HAL_Driver/Inc/stm32f0xx_ll_system.h **** 
  32:Drivers/STM32F0xx_HAL_Driver/Inc/stm32f0xx_ll_system.h **** /* Define to prevent recursive inclusion -------------------------------------*/
  33:Drivers/STM32F0xx_HAL_Driver/Inc/stm32f0xx_ll_system.h **** #ifndef __STM32F0xx_LL_SYSTEM_H
  34:Drivers/STM32F0xx_HAL_Driver/Inc/stm32f0xx_ll_system.h **** #define __STM32F0xx_LL_SYSTEM_H
  35:Drivers/STM32F0xx_HAL_Driver/Inc/stm32f0xx_ll_system.h **** 
  36:Drivers/STM32F0xx_HAL_Driver/Inc/stm32f0xx_ll_system.h **** #ifdef __cplusplus
  37:Drivers/STM32F0xx_HAL_Driver/Inc/stm32f0xx_ll_system.h **** extern "C" {
  38:Drivers/STM32F0xx_HAL_Driver/Inc/stm32f0xx_ll_system.h **** #endif
  39:Drivers/STM32F0xx_HAL_Driver/Inc/stm32f0xx_ll_system.h **** 
  40:Drivers/STM32F0xx_HAL_Driver/Inc/stm32f0xx_ll_system.h **** /* Includes ------------------------------------------------------------------*/
  41:Drivers/STM32F0xx_HAL_Driver/Inc/stm32f0xx_ll_system.h **** #include "stm32f0xx.h"
  42:Drivers/STM32F0xx_HAL_Driver/Inc/stm32f0xx_ll_system.h **** 
  43:Drivers/STM32F0xx_HAL_Driver/Inc/stm32f0xx_ll_system.h **** /** @addtogroup STM32F0xx_LL_Driver
  44:Drivers/STM32F0xx_HAL_Driver/Inc/stm32f0xx_ll_system.h ****   * @{
  45:Drivers/STM32F0xx_HAL_Driver/Inc/stm32f0xx_ll_system.h ****   */
  46:Drivers/STM32F0xx_HAL_Driver/Inc/stm32f0xx_ll_system.h **** 
  47:Drivers/STM32F0xx_HAL_Driver/Inc/stm32f0xx_ll_system.h **** #if defined (FLASH) || defined (SYSCFG) || defined (DBGMCU)
  48:Drivers/STM32F0xx_HAL_Driver/Inc/stm32f0xx_ll_system.h **** 
  49:Drivers/STM32F0xx_HAL_Driver/Inc/stm32f0xx_ll_system.h **** /** @defgroup SYSTEM_LL SYSTEM
  50:Drivers/STM32F0xx_HAL_Driver/Inc/stm32f0xx_ll_system.h ****   * @{
  51:Drivers/STM32F0xx_HAL_Driver/Inc/stm32f0xx_ll_system.h ****   */
  52:Drivers/STM32F0xx_HAL_Driver/Inc/stm32f0xx_ll_system.h **** 
  53:Drivers/STM32F0xx_HAL_Driver/Inc/stm32f0xx_ll_system.h **** /* Private types -------------------------------------------------------------*/
  54:Drivers/STM32F0xx_HAL_Driver/Inc/stm32f0xx_ll_system.h **** /* Private variables ---------------------------------------------------------*/
  55:Drivers/STM32F0xx_HAL_Driver/Inc/stm32f0xx_ll_system.h **** 
  56:Drivers/STM32F0xx_HAL_Driver/Inc/stm32f0xx_ll_system.h **** /* Private constants ---------------------------------------------------------*/
  57:Drivers/STM32F0xx_HAL_Driver/Inc/stm32f0xx_ll_system.h **** /** @defgroup SYSTEM_LL_Private_Constants SYSTEM Private Constants
  58:Drivers/STM32F0xx_HAL_Driver/Inc/stm32f0xx_ll_system.h ****   * @{
  59:Drivers/STM32F0xx_HAL_Driver/Inc/stm32f0xx_ll_system.h ****   */
  60:Drivers/STM32F0xx_HAL_Driver/Inc/stm32f0xx_ll_system.h **** 
  61:Drivers/STM32F0xx_HAL_Driver/Inc/stm32f0xx_ll_system.h **** /**
  62:Drivers/STM32F0xx_HAL_Driver/Inc/stm32f0xx_ll_system.h ****   * @}
  63:Drivers/STM32F0xx_HAL_Driver/Inc/stm32f0xx_ll_system.h ****   */
  64:Drivers/STM32F0xx_HAL_Driver/Inc/stm32f0xx_ll_system.h **** 
  65:Drivers/STM32F0xx_HAL_Driver/Inc/stm32f0xx_ll_system.h **** /* Private macros ------------------------------------------------------------*/
  66:Drivers/STM32F0xx_HAL_Driver/Inc/stm32f0xx_ll_system.h **** 
  67:Drivers/STM32F0xx_HAL_Driver/Inc/stm32f0xx_ll_system.h **** /* Exported types ------------------------------------------------------------*/
  68:Drivers/STM32F0xx_HAL_Driver/Inc/stm32f0xx_ll_system.h **** /* Exported constants --------------------------------------------------------*/
  69:Drivers/STM32F0xx_HAL_Driver/Inc/stm32f0xx_ll_system.h **** /** @defgroup SYSTEM_LL_Exported_Constants SYSTEM Exported Constants
  70:Drivers/STM32F0xx_HAL_Driver/Inc/stm32f0xx_ll_system.h ****   * @{
  71:Drivers/STM32F0xx_HAL_Driver/Inc/stm32f0xx_ll_system.h ****   */
  72:Drivers/STM32F0xx_HAL_Driver/Inc/stm32f0xx_ll_system.h **** 
  73:Drivers/STM32F0xx_HAL_Driver/Inc/stm32f0xx_ll_system.h **** /** @defgroup SYSTEM_LL_EC_REMAP SYSCFG Remap
  74:Drivers/STM32F0xx_HAL_Driver/Inc/stm32f0xx_ll_system.h **** * @{
  75:Drivers/STM32F0xx_HAL_Driver/Inc/stm32f0xx_ll_system.h **** */
  76:Drivers/STM32F0xx_HAL_Driver/Inc/stm32f0xx_ll_system.h **** #define LL_SYSCFG_REMAP_FLASH              (uint32_t)0x00000000U                               /*!<
  77:Drivers/STM32F0xx_HAL_Driver/Inc/stm32f0xx_ll_system.h **** #define LL_SYSCFG_REMAP_SYSTEMFLASH        SYSCFG_CFGR1_MEM_MODE_0                             /*!<
  78:Drivers/STM32F0xx_HAL_Driver/Inc/stm32f0xx_ll_system.h **** #define LL_SYSCFG_REMAP_SRAM               (SYSCFG_CFGR1_MEM_MODE_1 | SYSCFG_CFGR1_MEM_MODE_0) /*!<
  79:Drivers/STM32F0xx_HAL_Driver/Inc/stm32f0xx_ll_system.h **** /**
  80:Drivers/STM32F0xx_HAL_Driver/Inc/stm32f0xx_ll_system.h ****   * @}
ARM GAS  /tmp/ccfHzE7k.s 			page 30


  81:Drivers/STM32F0xx_HAL_Driver/Inc/stm32f0xx_ll_system.h ****   */
  82:Drivers/STM32F0xx_HAL_Driver/Inc/stm32f0xx_ll_system.h **** 
  83:Drivers/STM32F0xx_HAL_Driver/Inc/stm32f0xx_ll_system.h **** #if defined(SYSCFG_CFGR1_IR_MOD)
  84:Drivers/STM32F0xx_HAL_Driver/Inc/stm32f0xx_ll_system.h **** /** @defgroup SYSTEM_LL_EC_IR_MOD SYSCFG IR Modulation
  85:Drivers/STM32F0xx_HAL_Driver/Inc/stm32f0xx_ll_system.h ****   * @{
  86:Drivers/STM32F0xx_HAL_Driver/Inc/stm32f0xx_ll_system.h ****   */
  87:Drivers/STM32F0xx_HAL_Driver/Inc/stm32f0xx_ll_system.h **** #define LL_SYSCFG_IR_MOD_TIM16       (SYSCFG_CFGR1_IR_MOD_0 & SYSCFG_CFGR1_IR_MOD_1)    /*!< Timer1
  88:Drivers/STM32F0xx_HAL_Driver/Inc/stm32f0xx_ll_system.h **** #define LL_SYSCFG_IR_MOD_USART1      (SYSCFG_CFGR1_IR_MOD_0)                            /*!< USART1
  89:Drivers/STM32F0xx_HAL_Driver/Inc/stm32f0xx_ll_system.h **** #define LL_SYSCFG_IR_MOD_USART4      (SYSCFG_CFGR1_IR_MOD_1)                            /*!< USART4
  90:Drivers/STM32F0xx_HAL_Driver/Inc/stm32f0xx_ll_system.h **** /**
  91:Drivers/STM32F0xx_HAL_Driver/Inc/stm32f0xx_ll_system.h ****   * @}
  92:Drivers/STM32F0xx_HAL_Driver/Inc/stm32f0xx_ll_system.h ****   */
  93:Drivers/STM32F0xx_HAL_Driver/Inc/stm32f0xx_ll_system.h **** 
  94:Drivers/STM32F0xx_HAL_Driver/Inc/stm32f0xx_ll_system.h **** #endif /* SYSCFG_CFGR1_IR_MOD */
  95:Drivers/STM32F0xx_HAL_Driver/Inc/stm32f0xx_ll_system.h **** 
  96:Drivers/STM32F0xx_HAL_Driver/Inc/stm32f0xx_ll_system.h **** #if defined(SYSCFG_CFGR1_USART1TX_DMA_RMP) || defined(SYSCFG_CFGR1_USART1RX_DMA_RMP) || defined(SYS
  97:Drivers/STM32F0xx_HAL_Driver/Inc/stm32f0xx_ll_system.h **** /** @defgroup SYSTEM_LL_EC_USART1TX_RMP SYSCFG USART DMA Remap
  98:Drivers/STM32F0xx_HAL_Driver/Inc/stm32f0xx_ll_system.h ****   * @{
  99:Drivers/STM32F0xx_HAL_Driver/Inc/stm32f0xx_ll_system.h ****   */
 100:Drivers/STM32F0xx_HAL_Driver/Inc/stm32f0xx_ll_system.h **** #if defined (SYSCFG_CFGR1_USART1TX_DMA_RMP)
 101:Drivers/STM32F0xx_HAL_Driver/Inc/stm32f0xx_ll_system.h **** #define LL_SYSCFG_USART1TX_RMP_DMA1CH2     ((SYSCFG_CFGR1_USART1TX_DMA_RMP >> 8U) | (uint32_t)0x000
 102:Drivers/STM32F0xx_HAL_Driver/Inc/stm32f0xx_ll_system.h **** #define LL_SYSCFG_USART1TX_RMP_DMA1CH4     ((SYSCFG_CFGR1_USART1TX_DMA_RMP >> 8U) | SYSCFG_CFGR1_US
 103:Drivers/STM32F0xx_HAL_Driver/Inc/stm32f0xx_ll_system.h **** #endif /*SYSCFG_CFGR1_USART1TX_DMA_RMP*/
 104:Drivers/STM32F0xx_HAL_Driver/Inc/stm32f0xx_ll_system.h **** #if defined (SYSCFG_CFGR1_USART1RX_DMA_RMP)
 105:Drivers/STM32F0xx_HAL_Driver/Inc/stm32f0xx_ll_system.h **** #define LL_SYSCFG_USART1RX_RMP_DMA1CH3     ((SYSCFG_CFGR1_USART1RX_DMA_RMP >> 8U) | (uint32_t)0x000
 106:Drivers/STM32F0xx_HAL_Driver/Inc/stm32f0xx_ll_system.h **** #define LL_SYSCFG_USART1RX_RMP_DMA1CH5     ((SYSCFG_CFGR1_USART1RX_DMA_RMP >> 8U) | SYSCFG_CFGR1_US
 107:Drivers/STM32F0xx_HAL_Driver/Inc/stm32f0xx_ll_system.h **** #endif /*SYSCFG_CFGR1_USART1RX_DMA_RMP*/
 108:Drivers/STM32F0xx_HAL_Driver/Inc/stm32f0xx_ll_system.h **** #if defined (SYSCFG_CFGR1_USART2_DMA_RMP)
 109:Drivers/STM32F0xx_HAL_Driver/Inc/stm32f0xx_ll_system.h **** #define LL_SYSCFG_USART2_RMP_DMA1CH54      ((SYSCFG_CFGR1_USART2_DMA_RMP >> 8U) | (uint32_t)0x00000
 110:Drivers/STM32F0xx_HAL_Driver/Inc/stm32f0xx_ll_system.h **** #define LL_SYSCFG_USART2_RMP_DMA1CH67      ((SYSCFG_CFGR1_USART2_DMA_RMP >> 8U) | SYSCFG_CFGR1_USAR
 111:Drivers/STM32F0xx_HAL_Driver/Inc/stm32f0xx_ll_system.h **** #endif /*SYSCFG_CFGR1_USART2_DMA_RMP*/
 112:Drivers/STM32F0xx_HAL_Driver/Inc/stm32f0xx_ll_system.h **** #if defined (SYSCFG_CFGR1_USART3_DMA_RMP)
 113:Drivers/STM32F0xx_HAL_Driver/Inc/stm32f0xx_ll_system.h **** #define LL_SYSCFG_USART3_RMP_DMA1CH67      ((SYSCFG_CFGR1_USART3_DMA_RMP >> 8U) | (uint32_t)0x00000
 114:Drivers/STM32F0xx_HAL_Driver/Inc/stm32f0xx_ll_system.h **** #define LL_SYSCFG_USART3_RMP_DMA1CH32      ((SYSCFG_CFGR1_USART3_DMA_RMP >> 8U) | SYSCFG_CFGR1_USAR
 115:Drivers/STM32F0xx_HAL_Driver/Inc/stm32f0xx_ll_system.h **** #endif /* SYSCFG_CFGR1_USART3_DMA_RMP */
 116:Drivers/STM32F0xx_HAL_Driver/Inc/stm32f0xx_ll_system.h **** /**
 117:Drivers/STM32F0xx_HAL_Driver/Inc/stm32f0xx_ll_system.h ****   * @}
 118:Drivers/STM32F0xx_HAL_Driver/Inc/stm32f0xx_ll_system.h ****   */
 119:Drivers/STM32F0xx_HAL_Driver/Inc/stm32f0xx_ll_system.h **** #endif /* SYSCFG_CFGR1_USART1TX_DMA_RMP || SYSCFG_CFGR1_USART1RX_DMA_RMP || SYSCFG_CFGR1_USART2_DMA
 120:Drivers/STM32F0xx_HAL_Driver/Inc/stm32f0xx_ll_system.h **** 
 121:Drivers/STM32F0xx_HAL_Driver/Inc/stm32f0xx_ll_system.h **** #if defined (SYSCFG_CFGR1_SPI2_DMA_RMP)
 122:Drivers/STM32F0xx_HAL_Driver/Inc/stm32f0xx_ll_system.h **** /** @defgroup SYSTEM_LL_EC_SPI2_RMP_DMA1 SYSCFG SPI2 DMA Remap
 123:Drivers/STM32F0xx_HAL_Driver/Inc/stm32f0xx_ll_system.h ****   * @{
 124:Drivers/STM32F0xx_HAL_Driver/Inc/stm32f0xx_ll_system.h ****   */
 125:Drivers/STM32F0xx_HAL_Driver/Inc/stm32f0xx_ll_system.h **** #define LL_SYSCFG_SPI2_RMP_DMA1_CH45       (uint32_t)0x00000000U      /*!< SPI2_RX and SPI2_TX DMA 
 126:Drivers/STM32F0xx_HAL_Driver/Inc/stm32f0xx_ll_system.h **** #define LL_SYSCFG_SPI2_RMP_DMA1_CH67       SYSCFG_CFGR1_SPI2_DMA_RMP  /*!< SPI2_RX and SPI2_TX DMA 
 127:Drivers/STM32F0xx_HAL_Driver/Inc/stm32f0xx_ll_system.h **** /**
 128:Drivers/STM32F0xx_HAL_Driver/Inc/stm32f0xx_ll_system.h ****   * @}
 129:Drivers/STM32F0xx_HAL_Driver/Inc/stm32f0xx_ll_system.h ****   */
 130:Drivers/STM32F0xx_HAL_Driver/Inc/stm32f0xx_ll_system.h **** 
 131:Drivers/STM32F0xx_HAL_Driver/Inc/stm32f0xx_ll_system.h **** #endif /*SYSCFG_CFGR1_SPI2_DMA_RMP*/
 132:Drivers/STM32F0xx_HAL_Driver/Inc/stm32f0xx_ll_system.h **** 
 133:Drivers/STM32F0xx_HAL_Driver/Inc/stm32f0xx_ll_system.h **** #if defined (SYSCFG_CFGR1_I2C1_DMA_RMP)
 134:Drivers/STM32F0xx_HAL_Driver/Inc/stm32f0xx_ll_system.h **** /** @defgroup SYSTEM_LL_EC_I2C1_RMP_DMA1 SYSCFG I2C1 DMA Remap
 135:Drivers/STM32F0xx_HAL_Driver/Inc/stm32f0xx_ll_system.h ****   * @{
 136:Drivers/STM32F0xx_HAL_Driver/Inc/stm32f0xx_ll_system.h ****   */
 137:Drivers/STM32F0xx_HAL_Driver/Inc/stm32f0xx_ll_system.h **** #define LL_SYSCFG_I2C1_RMP_DMA1_CH32       (uint32_t)0x00000000U      /*!< I2C1_RX and I2C1_TX DMA 
ARM GAS  /tmp/ccfHzE7k.s 			page 31


 138:Drivers/STM32F0xx_HAL_Driver/Inc/stm32f0xx_ll_system.h **** #define LL_SYSCFG_I2C1_RMP_DMA1_CH76       SYSCFG_CFGR1_I2C1_DMA_RMP  /*!< I2C1_RX and I2C1_TX DMA 
 139:Drivers/STM32F0xx_HAL_Driver/Inc/stm32f0xx_ll_system.h **** /**
 140:Drivers/STM32F0xx_HAL_Driver/Inc/stm32f0xx_ll_system.h ****   * @}
 141:Drivers/STM32F0xx_HAL_Driver/Inc/stm32f0xx_ll_system.h ****   */
 142:Drivers/STM32F0xx_HAL_Driver/Inc/stm32f0xx_ll_system.h **** 
 143:Drivers/STM32F0xx_HAL_Driver/Inc/stm32f0xx_ll_system.h **** #endif /*SYSCFG_CFGR1_I2C1_DMA_RMP*/
 144:Drivers/STM32F0xx_HAL_Driver/Inc/stm32f0xx_ll_system.h **** 
 145:Drivers/STM32F0xx_HAL_Driver/Inc/stm32f0xx_ll_system.h **** #if defined(SYSCFG_CFGR1_ADC_DMA_RMP)
 146:Drivers/STM32F0xx_HAL_Driver/Inc/stm32f0xx_ll_system.h **** /** @defgroup SYSTEM_LL_EC_ADC1_RMP_DMA1 SYSCFG ADC1 DMA Remap
 147:Drivers/STM32F0xx_HAL_Driver/Inc/stm32f0xx_ll_system.h ****   * @{
 148:Drivers/STM32F0xx_HAL_Driver/Inc/stm32f0xx_ll_system.h ****   */
 149:Drivers/STM32F0xx_HAL_Driver/Inc/stm32f0xx_ll_system.h **** #define LL_SYSCFG_ADC1_RMP_DMA1_CH1        (uint32_t)0x00000000U     /*!< ADC DMA request mapped on
 150:Drivers/STM32F0xx_HAL_Driver/Inc/stm32f0xx_ll_system.h **** #define LL_SYSCFG_ADC1_RMP_DMA1_CH2        SYSCFG_CFGR1_ADC_DMA_RMP  /*!< ADC DMA request mapped on
 151:Drivers/STM32F0xx_HAL_Driver/Inc/stm32f0xx_ll_system.h **** /**
 152:Drivers/STM32F0xx_HAL_Driver/Inc/stm32f0xx_ll_system.h ****   * @}
 153:Drivers/STM32F0xx_HAL_Driver/Inc/stm32f0xx_ll_system.h ****   */
 154:Drivers/STM32F0xx_HAL_Driver/Inc/stm32f0xx_ll_system.h **** 
 155:Drivers/STM32F0xx_HAL_Driver/Inc/stm32f0xx_ll_system.h **** #endif /* SYSCFG_CFGR1_ADC_DMA_RMP */
 156:Drivers/STM32F0xx_HAL_Driver/Inc/stm32f0xx_ll_system.h **** 
 157:Drivers/STM32F0xx_HAL_Driver/Inc/stm32f0xx_ll_system.h **** #if defined(SYSCFG_CFGR1_TIM16_DMA_RMP) || defined(SYSCFG_CFGR1_TIM17_DMA_RMP) || defined(SYSCFG_CF
 158:Drivers/STM32F0xx_HAL_Driver/Inc/stm32f0xx_ll_system.h **** /** @defgroup SYSTEM_LL_EC_TIM16_RMP_DMA1 SYSCFG TIM DMA Remap
 159:Drivers/STM32F0xx_HAL_Driver/Inc/stm32f0xx_ll_system.h ****   * @{
 160:Drivers/STM32F0xx_HAL_Driver/Inc/stm32f0xx_ll_system.h ****   */
 161:Drivers/STM32F0xx_HAL_Driver/Inc/stm32f0xx_ll_system.h **** #if defined(SYSCFG_CFGR1_TIM16_DMA_RMP)
 162:Drivers/STM32F0xx_HAL_Driver/Inc/stm32f0xx_ll_system.h **** #if defined (SYSCFG_CFGR1_TIM16_DMA_RMP2)
 163:Drivers/STM32F0xx_HAL_Driver/Inc/stm32f0xx_ll_system.h **** #define LL_SYSCFG_TIM16_RMP_DMA1_CH3       (((SYSCFG_CFGR1_TIM16_DMA_RMP | SYSCFG_CFGR1_TIM16_DMA_R
 164:Drivers/STM32F0xx_HAL_Driver/Inc/stm32f0xx_ll_system.h **** #define LL_SYSCFG_TIM16_RMP_DMA1_CH4       (((SYSCFG_CFGR1_TIM16_DMA_RMP | SYSCFG_CFGR1_TIM16_DMA_R
 165:Drivers/STM32F0xx_HAL_Driver/Inc/stm32f0xx_ll_system.h **** #define LL_SYSCFG_TIM16_RMP_DMA1_CH6       ((SYSCFG_CFGR1_TIM16_DMA_RMP2 >> 8U) | SYSCFG_CFGR1_TIM1
 166:Drivers/STM32F0xx_HAL_Driver/Inc/stm32f0xx_ll_system.h **** #else
 167:Drivers/STM32F0xx_HAL_Driver/Inc/stm32f0xx_ll_system.h **** #define LL_SYSCFG_TIM16_RMP_DMA1_CH3       ((SYSCFG_CFGR1_TIM16_DMA_RMP >> 8U) | (uint32_t)0x000000
 168:Drivers/STM32F0xx_HAL_Driver/Inc/stm32f0xx_ll_system.h **** #define LL_SYSCFG_TIM16_RMP_DMA1_CH4       ((SYSCFG_CFGR1_TIM16_DMA_RMP >> 8U) | SYSCFG_CFGR1_TIM16
 169:Drivers/STM32F0xx_HAL_Driver/Inc/stm32f0xx_ll_system.h **** #endif /* SYSCFG_CFGR1_TIM16_DMA_RMP2 */
 170:Drivers/STM32F0xx_HAL_Driver/Inc/stm32f0xx_ll_system.h **** #endif /* SYSCFG_CFGR1_TIM16_DMA_RMP */
 171:Drivers/STM32F0xx_HAL_Driver/Inc/stm32f0xx_ll_system.h **** #if defined(SYSCFG_CFGR1_TIM17_DMA_RMP)
 172:Drivers/STM32F0xx_HAL_Driver/Inc/stm32f0xx_ll_system.h **** #if defined (SYSCFG_CFGR1_TIM17_DMA_RMP2)
 173:Drivers/STM32F0xx_HAL_Driver/Inc/stm32f0xx_ll_system.h **** #define LL_SYSCFG_TIM17_RMP_DMA1_CH1       (((SYSCFG_CFGR1_TIM17_DMA_RMP | SYSCFG_CFGR1_TIM17_DMA_R
 174:Drivers/STM32F0xx_HAL_Driver/Inc/stm32f0xx_ll_system.h **** #define LL_SYSCFG_TIM17_RMP_DMA1_CH2       (((SYSCFG_CFGR1_TIM17_DMA_RMP | SYSCFG_CFGR1_TIM17_DMA_R
 175:Drivers/STM32F0xx_HAL_Driver/Inc/stm32f0xx_ll_system.h **** #define LL_SYSCFG_TIM17_RMP_DMA1_CH7       ((SYSCFG_CFGR1_TIM17_DMA_RMP2 >> 8U) | SYSCFG_CFGR1_TIM1
 176:Drivers/STM32F0xx_HAL_Driver/Inc/stm32f0xx_ll_system.h **** #else
 177:Drivers/STM32F0xx_HAL_Driver/Inc/stm32f0xx_ll_system.h **** #define LL_SYSCFG_TIM17_RMP_DMA1_CH1       ((SYSCFG_CFGR1_TIM17_DMA_RMP >> 8U) | (uint32_t)0x000000
 178:Drivers/STM32F0xx_HAL_Driver/Inc/stm32f0xx_ll_system.h **** #define LL_SYSCFG_TIM17_RMP_DMA1_CH2       ((SYSCFG_CFGR1_TIM17_DMA_RMP >> 8U) | SYSCFG_CFGR1_TIM17
 179:Drivers/STM32F0xx_HAL_Driver/Inc/stm32f0xx_ll_system.h **** #endif /* SYSCFG_CFGR1_TIM17_DMA_RMP2 */
 180:Drivers/STM32F0xx_HAL_Driver/Inc/stm32f0xx_ll_system.h **** #endif /* SYSCFG_CFGR1_TIM17_DMA_RMP */
 181:Drivers/STM32F0xx_HAL_Driver/Inc/stm32f0xx_ll_system.h **** #if defined (SYSCFG_CFGR1_TIM1_DMA_RMP)
 182:Drivers/STM32F0xx_HAL_Driver/Inc/stm32f0xx_ll_system.h **** #define LL_SYSCFG_TIM1_RMP_DMA1_CH234      ((SYSCFG_CFGR1_TIM1_DMA_RMP >> 8U) | (uint32_t)0x0000000
 183:Drivers/STM32F0xx_HAL_Driver/Inc/stm32f0xx_ll_system.h **** #define LL_SYSCFG_TIM1_RMP_DMA1_CH6        ((SYSCFG_CFGR1_TIM1_DMA_RMP >> 8U) | SYSCFG_CFGR1_TIM1_D
 184:Drivers/STM32F0xx_HAL_Driver/Inc/stm32f0xx_ll_system.h **** #endif /*SYSCFG_CFGR1_TIM1_DMA_RMP*/
 185:Drivers/STM32F0xx_HAL_Driver/Inc/stm32f0xx_ll_system.h **** #if defined (SYSCFG_CFGR1_TIM2_DMA_RMP)
 186:Drivers/STM32F0xx_HAL_Driver/Inc/stm32f0xx_ll_system.h **** #define LL_SYSCFG_TIM2_RMP_DMA1_CH34       ((SYSCFG_CFGR1_TIM2_DMA_RMP >> 8U) | (uint32_t)0x0000000
 187:Drivers/STM32F0xx_HAL_Driver/Inc/stm32f0xx_ll_system.h **** #define LL_SYSCFG_TIM2_RMP_DMA1_CH7        ((SYSCFG_CFGR1_TIM2_DMA_RMP >> 8U) | SYSCFG_CFGR1_TIM2_D
 188:Drivers/STM32F0xx_HAL_Driver/Inc/stm32f0xx_ll_system.h **** #endif /*SYSCFG_CFGR1_TIM2_DMA_RMP*/
 189:Drivers/STM32F0xx_HAL_Driver/Inc/stm32f0xx_ll_system.h **** #if defined (SYSCFG_CFGR1_TIM3_DMA_RMP)
 190:Drivers/STM32F0xx_HAL_Driver/Inc/stm32f0xx_ll_system.h **** #define LL_SYSCFG_TIM3_RMP_DMA1_CH4        ((SYSCFG_CFGR1_TIM3_DMA_RMP >> 8U) | (uint32_t)0x0000000
 191:Drivers/STM32F0xx_HAL_Driver/Inc/stm32f0xx_ll_system.h **** #define LL_SYSCFG_TIM3_RMP_DMA1_CH6        ((SYSCFG_CFGR1_TIM3_DMA_RMP >> 8U) | SYSCFG_CFGR1_TIM3_D
 192:Drivers/STM32F0xx_HAL_Driver/Inc/stm32f0xx_ll_system.h **** #endif /*SYSCFG_CFGR1_TIM3_DMA_RMP*/
 193:Drivers/STM32F0xx_HAL_Driver/Inc/stm32f0xx_ll_system.h **** /**
 194:Drivers/STM32F0xx_HAL_Driver/Inc/stm32f0xx_ll_system.h ****   * @}
ARM GAS  /tmp/ccfHzE7k.s 			page 32


 195:Drivers/STM32F0xx_HAL_Driver/Inc/stm32f0xx_ll_system.h ****   */
 196:Drivers/STM32F0xx_HAL_Driver/Inc/stm32f0xx_ll_system.h **** 
 197:Drivers/STM32F0xx_HAL_Driver/Inc/stm32f0xx_ll_system.h **** #endif /* SYSCFG_CFGR1_TIM16_DMA_RMP || SYSCFG_CFGR1_TIM17_DMA_RMP || SYSCFG_CFGR1_TIM1_DMA_RMP || 
 198:Drivers/STM32F0xx_HAL_Driver/Inc/stm32f0xx_ll_system.h **** 
 199:Drivers/STM32F0xx_HAL_Driver/Inc/stm32f0xx_ll_system.h **** /** @defgroup SYSTEM_LL_EC_I2C_FASTMODEPLUS SYSCFG I2C FASTMODEPLUS
 200:Drivers/STM32F0xx_HAL_Driver/Inc/stm32f0xx_ll_system.h ****   * @{
 201:Drivers/STM32F0xx_HAL_Driver/Inc/stm32f0xx_ll_system.h ****   */
 202:Drivers/STM32F0xx_HAL_Driver/Inc/stm32f0xx_ll_system.h **** #define LL_SYSCFG_I2C_FASTMODEPLUS_PB6     SYSCFG_CFGR1_I2C_FMP_PB6  /*!< I2C PB6 Fast mode plus */
 203:Drivers/STM32F0xx_HAL_Driver/Inc/stm32f0xx_ll_system.h **** #define LL_SYSCFG_I2C_FASTMODEPLUS_PB7     SYSCFG_CFGR1_I2C_FMP_PB7  /*!< I2C PB7 Fast mode plus */
 204:Drivers/STM32F0xx_HAL_Driver/Inc/stm32f0xx_ll_system.h **** #define LL_SYSCFG_I2C_FASTMODEPLUS_PB8     SYSCFG_CFGR1_I2C_FMP_PB8  /*!< I2C PB8 Fast mode plus */
 205:Drivers/STM32F0xx_HAL_Driver/Inc/stm32f0xx_ll_system.h **** #define LL_SYSCFG_I2C_FASTMODEPLUS_PB9     SYSCFG_CFGR1_I2C_FMP_PB9  /*!< I2C PB9 Fast mode plus */
 206:Drivers/STM32F0xx_HAL_Driver/Inc/stm32f0xx_ll_system.h **** #if defined(SYSCFG_CFGR1_I2C_FMP_I2C1)
 207:Drivers/STM32F0xx_HAL_Driver/Inc/stm32f0xx_ll_system.h **** #define LL_SYSCFG_I2C_FASTMODEPLUS_I2C1    SYSCFG_CFGR1_I2C_FMP_I2C1 /*!< Enable Fast Mode Plus on 
 208:Drivers/STM32F0xx_HAL_Driver/Inc/stm32f0xx_ll_system.h **** #endif /*SYSCFG_CFGR1_I2C_FMP_I2C1*/
 209:Drivers/STM32F0xx_HAL_Driver/Inc/stm32f0xx_ll_system.h **** #if defined(SYSCFG_CFGR1_I2C_FMP_I2C2)
 210:Drivers/STM32F0xx_HAL_Driver/Inc/stm32f0xx_ll_system.h **** #define LL_SYSCFG_I2C_FASTMODEPLUS_I2C2    SYSCFG_CFGR1_I2C_FMP_I2C2 /*!< Enable I2C2 Fast mode plu
 211:Drivers/STM32F0xx_HAL_Driver/Inc/stm32f0xx_ll_system.h **** #endif /*SYSCFG_CFGR1_I2C_FMP_I2C2*/
 212:Drivers/STM32F0xx_HAL_Driver/Inc/stm32f0xx_ll_system.h **** #if defined(SYSCFG_CFGR1_I2C_FMP_PA9)
 213:Drivers/STM32F0xx_HAL_Driver/Inc/stm32f0xx_ll_system.h **** #define LL_SYSCFG_I2C_FASTMODEPLUS_PA9     SYSCFG_CFGR1_I2C_FMP_PA9 /*!< Enable Fast Mode Plus on P
 214:Drivers/STM32F0xx_HAL_Driver/Inc/stm32f0xx_ll_system.h **** #endif /*SYSCFG_CFGR1_I2C_FMP_PA9*/
 215:Drivers/STM32F0xx_HAL_Driver/Inc/stm32f0xx_ll_system.h **** #if defined(SYSCFG_CFGR1_I2C_FMP_PA10)
 216:Drivers/STM32F0xx_HAL_Driver/Inc/stm32f0xx_ll_system.h **** #define LL_SYSCFG_I2C_FASTMODEPLUS_PA10    SYSCFG_CFGR1_I2C_FMP_PA10 /*!< Enable Fast Mode Plus on 
 217:Drivers/STM32F0xx_HAL_Driver/Inc/stm32f0xx_ll_system.h **** #endif /*SYSCFG_CFGR1_I2C_FMP_PA10*/
 218:Drivers/STM32F0xx_HAL_Driver/Inc/stm32f0xx_ll_system.h **** /**
 219:Drivers/STM32F0xx_HAL_Driver/Inc/stm32f0xx_ll_system.h ****   * @}
 220:Drivers/STM32F0xx_HAL_Driver/Inc/stm32f0xx_ll_system.h ****   */
 221:Drivers/STM32F0xx_HAL_Driver/Inc/stm32f0xx_ll_system.h **** 
 222:Drivers/STM32F0xx_HAL_Driver/Inc/stm32f0xx_ll_system.h **** /** @defgroup SYSTEM_LL_EC_EXTI_PORT SYSCFG EXTI PORT
 223:Drivers/STM32F0xx_HAL_Driver/Inc/stm32f0xx_ll_system.h ****   * @{
 224:Drivers/STM32F0xx_HAL_Driver/Inc/stm32f0xx_ll_system.h ****   */
 225:Drivers/STM32F0xx_HAL_Driver/Inc/stm32f0xx_ll_system.h **** #define LL_SYSCFG_EXTI_PORTA               (uint32_t)0U               /*!< EXTI PORT A */
 226:Drivers/STM32F0xx_HAL_Driver/Inc/stm32f0xx_ll_system.h **** #define LL_SYSCFG_EXTI_PORTB               (uint32_t)1U               /*!< EXTI PORT B */
 227:Drivers/STM32F0xx_HAL_Driver/Inc/stm32f0xx_ll_system.h **** #define LL_SYSCFG_EXTI_PORTC               (uint32_t)2U               /*!< EXTI PORT C */
 228:Drivers/STM32F0xx_HAL_Driver/Inc/stm32f0xx_ll_system.h **** #if defined(GPIOD_BASE)
 229:Drivers/STM32F0xx_HAL_Driver/Inc/stm32f0xx_ll_system.h **** #define LL_SYSCFG_EXTI_PORTD               (uint32_t)3U               /*!< EXTI PORT D */
 230:Drivers/STM32F0xx_HAL_Driver/Inc/stm32f0xx_ll_system.h **** #endif /*GPIOD_BASE*/
 231:Drivers/STM32F0xx_HAL_Driver/Inc/stm32f0xx_ll_system.h **** #if defined(GPIOE_BASE)
 232:Drivers/STM32F0xx_HAL_Driver/Inc/stm32f0xx_ll_system.h **** #define LL_SYSCFG_EXTI_PORTE               (uint32_t)4U               /*!< EXTI PORT E */
 233:Drivers/STM32F0xx_HAL_Driver/Inc/stm32f0xx_ll_system.h **** #endif /*GPIOE_BASE*/
 234:Drivers/STM32F0xx_HAL_Driver/Inc/stm32f0xx_ll_system.h **** #define LL_SYSCFG_EXTI_PORTF               (uint32_t)5U               /*!< EXTI PORT F */
 235:Drivers/STM32F0xx_HAL_Driver/Inc/stm32f0xx_ll_system.h **** /**
 236:Drivers/STM32F0xx_HAL_Driver/Inc/stm32f0xx_ll_system.h ****   * @}
 237:Drivers/STM32F0xx_HAL_Driver/Inc/stm32f0xx_ll_system.h ****   */
 238:Drivers/STM32F0xx_HAL_Driver/Inc/stm32f0xx_ll_system.h **** 
 239:Drivers/STM32F0xx_HAL_Driver/Inc/stm32f0xx_ll_system.h **** /** @defgroup SYSTEM_LL_EC_EXTI_LINE SYSCFG EXTI LINE
 240:Drivers/STM32F0xx_HAL_Driver/Inc/stm32f0xx_ll_system.h ****   * @{
 241:Drivers/STM32F0xx_HAL_Driver/Inc/stm32f0xx_ll_system.h ****   */
 242:Drivers/STM32F0xx_HAL_Driver/Inc/stm32f0xx_ll_system.h **** #define LL_SYSCFG_EXTI_LINE0               (uint32_t)(0U << 16U | 0U)  /*!< EXTI_POSITION_0  | EXTI
 243:Drivers/STM32F0xx_HAL_Driver/Inc/stm32f0xx_ll_system.h **** #define LL_SYSCFG_EXTI_LINE1               (uint32_t)(4U << 16U | 0U)  /*!< EXTI_POSITION_4  | EXTI
 244:Drivers/STM32F0xx_HAL_Driver/Inc/stm32f0xx_ll_system.h **** #define LL_SYSCFG_EXTI_LINE2               (uint32_t)(8U << 16U | 0U)  /*!< EXTI_POSITION_8  | EXTI
 245:Drivers/STM32F0xx_HAL_Driver/Inc/stm32f0xx_ll_system.h **** #define LL_SYSCFG_EXTI_LINE3               (uint32_t)(12U << 16U | 0U) /*!< EXTI_POSITION_12 | EXTI
 246:Drivers/STM32F0xx_HAL_Driver/Inc/stm32f0xx_ll_system.h **** #define LL_SYSCFG_EXTI_LINE4               (uint32_t)(0U << 16U | 1U)  /*!< EXTI_POSITION_0  | EXTI
 247:Drivers/STM32F0xx_HAL_Driver/Inc/stm32f0xx_ll_system.h **** #define LL_SYSCFG_EXTI_LINE5               (uint32_t)(4U << 16U | 1U)  /*!< EXTI_POSITION_4  | EXTI
 248:Drivers/STM32F0xx_HAL_Driver/Inc/stm32f0xx_ll_system.h **** #define LL_SYSCFG_EXTI_LINE6               (uint32_t)(8U << 16U | 1U)  /*!< EXTI_POSITION_8  | EXTI
 249:Drivers/STM32F0xx_HAL_Driver/Inc/stm32f0xx_ll_system.h **** #define LL_SYSCFG_EXTI_LINE7               (uint32_t)(12U << 16U | 1U) /*!< EXTI_POSITION_12 | EXTI
 250:Drivers/STM32F0xx_HAL_Driver/Inc/stm32f0xx_ll_system.h **** #define LL_SYSCFG_EXTI_LINE8               (uint32_t)(0U << 16U | 2U)  /*!< EXTI_POSITION_0  | EXTI
 251:Drivers/STM32F0xx_HAL_Driver/Inc/stm32f0xx_ll_system.h **** #define LL_SYSCFG_EXTI_LINE9               (uint32_t)(4U << 16U | 2U)  /*!< EXTI_POSITION_4  | EXTI
ARM GAS  /tmp/ccfHzE7k.s 			page 33


 252:Drivers/STM32F0xx_HAL_Driver/Inc/stm32f0xx_ll_system.h **** #define LL_SYSCFG_EXTI_LINE10              (uint32_t)(8U << 16U | 2U)  /*!< EXTI_POSITION_8  | EXTI
 253:Drivers/STM32F0xx_HAL_Driver/Inc/stm32f0xx_ll_system.h **** #define LL_SYSCFG_EXTI_LINE11              (uint32_t)(12U << 16U | 2U) /*!< EXTI_POSITION_12 | EXTI
 254:Drivers/STM32F0xx_HAL_Driver/Inc/stm32f0xx_ll_system.h **** #define LL_SYSCFG_EXTI_LINE12              (uint32_t)(0U << 16U | 3U)  /*!< EXTI_POSITION_0  | EXTI
 255:Drivers/STM32F0xx_HAL_Driver/Inc/stm32f0xx_ll_system.h **** #define LL_SYSCFG_EXTI_LINE13              (uint32_t)(4U << 16U | 3U)  /*!< EXTI_POSITION_4  | EXTI
 256:Drivers/STM32F0xx_HAL_Driver/Inc/stm32f0xx_ll_system.h **** #define LL_SYSCFG_EXTI_LINE14              (uint32_t)(8U << 16U | 3U)  /*!< EXTI_POSITION_8  | EXTI
 257:Drivers/STM32F0xx_HAL_Driver/Inc/stm32f0xx_ll_system.h **** #define LL_SYSCFG_EXTI_LINE15              (uint32_t)(12U << 16U | 3U) /*!< EXTI_POSITION_12 | EXTI
 258:Drivers/STM32F0xx_HAL_Driver/Inc/stm32f0xx_ll_system.h **** /**
 259:Drivers/STM32F0xx_HAL_Driver/Inc/stm32f0xx_ll_system.h ****   * @}
 260:Drivers/STM32F0xx_HAL_Driver/Inc/stm32f0xx_ll_system.h ****   */
 261:Drivers/STM32F0xx_HAL_Driver/Inc/stm32f0xx_ll_system.h **** 
 262:Drivers/STM32F0xx_HAL_Driver/Inc/stm32f0xx_ll_system.h **** /** @defgroup SYSTEM_LL_EC_TIMBREAK SYSCFG TIMER BREAK
 263:Drivers/STM32F0xx_HAL_Driver/Inc/stm32f0xx_ll_system.h ****   * @{
 264:Drivers/STM32F0xx_HAL_Driver/Inc/stm32f0xx_ll_system.h ****   */
 265:Drivers/STM32F0xx_HAL_Driver/Inc/stm32f0xx_ll_system.h **** #if defined(SYSCFG_CFGR2_PVD_LOCK)
 266:Drivers/STM32F0xx_HAL_Driver/Inc/stm32f0xx_ll_system.h **** #define LL_SYSCFG_TIMBREAK_PVD             SYSCFG_CFGR2_PVD_LOCK  /*!< Enables and locks the PVD co
 267:Drivers/STM32F0xx_HAL_Driver/Inc/stm32f0xx_ll_system.h ****                                                                        with TIM1/15/16U/17 Break In
 268:Drivers/STM32F0xx_HAL_Driver/Inc/stm32f0xx_ll_system.h ****                                                                        the PVDE and PLS bits of the
 269:Drivers/STM32F0xx_HAL_Driver/Inc/stm32f0xx_ll_system.h **** #endif /*SYSCFG_CFGR2_PVD_LOCK*/
 270:Drivers/STM32F0xx_HAL_Driver/Inc/stm32f0xx_ll_system.h **** #define LL_SYSCFG_TIMBREAK_SRAM_PARITY     SYSCFG_CFGR2_SRAM_PARITY_LOCK   /*!< Enables and locks t
 271:Drivers/STM32F0xx_HAL_Driver/Inc/stm32f0xx_ll_system.h ****                                                                                 with Break Input of
 272:Drivers/STM32F0xx_HAL_Driver/Inc/stm32f0xx_ll_system.h **** #define LL_SYSCFG_TIMBREAK_LOCKUP          SYSCFG_CFGR2_LOCKUP_LOCK   /*!< Enables and locks the LO
 273:Drivers/STM32F0xx_HAL_Driver/Inc/stm32f0xx_ll_system.h ****                                                                            CortexM0 with Break Inpu
 274:Drivers/STM32F0xx_HAL_Driver/Inc/stm32f0xx_ll_system.h **** /**
 275:Drivers/STM32F0xx_HAL_Driver/Inc/stm32f0xx_ll_system.h ****   * @}
 276:Drivers/STM32F0xx_HAL_Driver/Inc/stm32f0xx_ll_system.h ****   */
 277:Drivers/STM32F0xx_HAL_Driver/Inc/stm32f0xx_ll_system.h **** 
 278:Drivers/STM32F0xx_HAL_Driver/Inc/stm32f0xx_ll_system.h **** /** @defgroup SYSTEM_LL_EC_APB1_GRP1_STOP_IP  DBGMCU APB1 GRP1 STOP IP
 279:Drivers/STM32F0xx_HAL_Driver/Inc/stm32f0xx_ll_system.h ****   * @{
 280:Drivers/STM32F0xx_HAL_Driver/Inc/stm32f0xx_ll_system.h ****   */
 281:Drivers/STM32F0xx_HAL_Driver/Inc/stm32f0xx_ll_system.h **** #if defined(DBGMCU_APB1_FZ_DBG_TIM2_STOP)
 282:Drivers/STM32F0xx_HAL_Driver/Inc/stm32f0xx_ll_system.h **** #define LL_DBGMCU_APB1_GRP1_TIM2_STOP      DBGMCU_APB1_FZ_DBG_TIM2_STOP        /*!< TIM2 counter st
 283:Drivers/STM32F0xx_HAL_Driver/Inc/stm32f0xx_ll_system.h **** #endif /*DBGMCU_APB1_FZ_DBG_TIM2_STOP*/
 284:Drivers/STM32F0xx_HAL_Driver/Inc/stm32f0xx_ll_system.h **** #define LL_DBGMCU_APB1_GRP1_TIM3_STOP      DBGMCU_APB1_FZ_DBG_TIM3_STOP        /*!< TIM3 counter st
 285:Drivers/STM32F0xx_HAL_Driver/Inc/stm32f0xx_ll_system.h **** #if defined(DBGMCU_APB1_FZ_DBG_TIM6_STOP)
 286:Drivers/STM32F0xx_HAL_Driver/Inc/stm32f0xx_ll_system.h **** #define LL_DBGMCU_APB1_GRP1_TIM6_STOP      DBGMCU_APB1_FZ_DBG_TIM6_STOP        /*!< TIM6 counter st
 287:Drivers/STM32F0xx_HAL_Driver/Inc/stm32f0xx_ll_system.h **** #endif /*DBGMCU_APB1_FZ_DBG_TIM6_STOP*/
 288:Drivers/STM32F0xx_HAL_Driver/Inc/stm32f0xx_ll_system.h **** #if defined(DBGMCU_APB1_FZ_DBG_TIM7_STOP)
 289:Drivers/STM32F0xx_HAL_Driver/Inc/stm32f0xx_ll_system.h **** #define LL_DBGMCU_APB1_GRP1_TIM7_STOP      DBGMCU_APB1_FZ_DBG_TIM7_STOP        /*!< TIM7 counter st
 290:Drivers/STM32F0xx_HAL_Driver/Inc/stm32f0xx_ll_system.h **** #endif /*DBGMCU_APB1_FZ_DBG_TIM7_STOP*/
 291:Drivers/STM32F0xx_HAL_Driver/Inc/stm32f0xx_ll_system.h **** #define LL_DBGMCU_APB1_GRP1_TIM14_STOP     DBGMCU_APB1_FZ_DBG_TIM14_STOP       /*!< TIM14 counter s
 292:Drivers/STM32F0xx_HAL_Driver/Inc/stm32f0xx_ll_system.h **** #define LL_DBGMCU_APB1_GRP1_RTC_STOP       DBGMCU_APB1_FZ_DBG_RTC_STOP         /*!< RTC Calendar fr
 293:Drivers/STM32F0xx_HAL_Driver/Inc/stm32f0xx_ll_system.h **** #define LL_DBGMCU_APB1_GRP1_WWDG_STOP      DBGMCU_APB1_FZ_DBG_WWDG_STOP        /*!< Debug Window Wa
 294:Drivers/STM32F0xx_HAL_Driver/Inc/stm32f0xx_ll_system.h **** #define LL_DBGMCU_APB1_GRP1_IWDG_STOP      DBGMCU_APB1_FZ_DBG_IWDG_STOP        /*!< Debug Independe
 295:Drivers/STM32F0xx_HAL_Driver/Inc/stm32f0xx_ll_system.h **** #define LL_DBGMCU_APB1_GRP1_I2C1_STOP      DBGMCU_APB1_FZ_DBG_I2C1_SMBUS_TIMEOUT /*!< I2C1 SMBUS ti
 296:Drivers/STM32F0xx_HAL_Driver/Inc/stm32f0xx_ll_system.h **** #if defined(DBGMCU_APB1_FZ_DBG_CAN_STOP)
 297:Drivers/STM32F0xx_HAL_Driver/Inc/stm32f0xx_ll_system.h **** #define LL_DBGMCU_APB1_GRP1_CAN_STOP       DBGMCU_APB1_FZ_DBG_CAN_STOP         /*!< CAN debug stopp
 298:Drivers/STM32F0xx_HAL_Driver/Inc/stm32f0xx_ll_system.h **** #endif /*DBGMCU_APB1_FZ_DBG_CAN_STOP*/
 299:Drivers/STM32F0xx_HAL_Driver/Inc/stm32f0xx_ll_system.h **** /**
 300:Drivers/STM32F0xx_HAL_Driver/Inc/stm32f0xx_ll_system.h ****   * @}
 301:Drivers/STM32F0xx_HAL_Driver/Inc/stm32f0xx_ll_system.h ****   */
 302:Drivers/STM32F0xx_HAL_Driver/Inc/stm32f0xx_ll_system.h **** 
 303:Drivers/STM32F0xx_HAL_Driver/Inc/stm32f0xx_ll_system.h **** /** @defgroup SYSTEM_LL_EC_APB1 GRP2_STOP_IP DBGMCU APB1 GRP2 STOP IP
 304:Drivers/STM32F0xx_HAL_Driver/Inc/stm32f0xx_ll_system.h ****   * @{
 305:Drivers/STM32F0xx_HAL_Driver/Inc/stm32f0xx_ll_system.h ****   */
 306:Drivers/STM32F0xx_HAL_Driver/Inc/stm32f0xx_ll_system.h **** #define LL_DBGMCU_APB1_GRP2_TIM1_STOP      DBGMCU_APB2_FZ_DBG_TIM1_STOP        /*!< TIM1 counter st
 307:Drivers/STM32F0xx_HAL_Driver/Inc/stm32f0xx_ll_system.h **** #if defined(DBGMCU_APB2_FZ_DBG_TIM15_STOP)
 308:Drivers/STM32F0xx_HAL_Driver/Inc/stm32f0xx_ll_system.h **** #define LL_DBGMCU_APB1_GRP2_TIM15_STOP     DBGMCU_APB2_FZ_DBG_TIM15_STOP       /*!< TIM15 counter s
ARM GAS  /tmp/ccfHzE7k.s 			page 34


 309:Drivers/STM32F0xx_HAL_Driver/Inc/stm32f0xx_ll_system.h **** #endif /*DBGMCU_APB2_FZ_DBG_TIM15_STOP*/
 310:Drivers/STM32F0xx_HAL_Driver/Inc/stm32f0xx_ll_system.h **** #define LL_DBGMCU_APB1_GRP2_TIM16_STOP     DBGMCU_APB2_FZ_DBG_TIM16_STOP       /*!< TIM16 counter s
 311:Drivers/STM32F0xx_HAL_Driver/Inc/stm32f0xx_ll_system.h **** #define LL_DBGMCU_APB1_GRP2_TIM17_STOP     DBGMCU_APB2_FZ_DBG_TIM17_STOP       /*!< TIM17 counter s
 312:Drivers/STM32F0xx_HAL_Driver/Inc/stm32f0xx_ll_system.h **** /**
 313:Drivers/STM32F0xx_HAL_Driver/Inc/stm32f0xx_ll_system.h ****   * @}
 314:Drivers/STM32F0xx_HAL_Driver/Inc/stm32f0xx_ll_system.h ****   */
 315:Drivers/STM32F0xx_HAL_Driver/Inc/stm32f0xx_ll_system.h **** 
 316:Drivers/STM32F0xx_HAL_Driver/Inc/stm32f0xx_ll_system.h **** /** @defgroup SYSTEM_LL_EC_LATENCY FLASH LATENCY
 317:Drivers/STM32F0xx_HAL_Driver/Inc/stm32f0xx_ll_system.h ****   * @{
 318:Drivers/STM32F0xx_HAL_Driver/Inc/stm32f0xx_ll_system.h ****   */
 319:Drivers/STM32F0xx_HAL_Driver/Inc/stm32f0xx_ll_system.h **** #define LL_FLASH_LATENCY_0                 0x00000000U             /*!< FLASH Zero Latency cycle */
 320:Drivers/STM32F0xx_HAL_Driver/Inc/stm32f0xx_ll_system.h **** #define LL_FLASH_LATENCY_1                 FLASH_ACR_LATENCY       /*!< FLASH One Latency cycle */
 321:Drivers/STM32F0xx_HAL_Driver/Inc/stm32f0xx_ll_system.h **** /**
 322:Drivers/STM32F0xx_HAL_Driver/Inc/stm32f0xx_ll_system.h ****   * @}
 323:Drivers/STM32F0xx_HAL_Driver/Inc/stm32f0xx_ll_system.h ****   */
 324:Drivers/STM32F0xx_HAL_Driver/Inc/stm32f0xx_ll_system.h **** 
 325:Drivers/STM32F0xx_HAL_Driver/Inc/stm32f0xx_ll_system.h **** /**
 326:Drivers/STM32F0xx_HAL_Driver/Inc/stm32f0xx_ll_system.h ****   * @}
 327:Drivers/STM32F0xx_HAL_Driver/Inc/stm32f0xx_ll_system.h ****   */
 328:Drivers/STM32F0xx_HAL_Driver/Inc/stm32f0xx_ll_system.h **** 
 329:Drivers/STM32F0xx_HAL_Driver/Inc/stm32f0xx_ll_system.h **** /* Exported macro ------------------------------------------------------------*/
 330:Drivers/STM32F0xx_HAL_Driver/Inc/stm32f0xx_ll_system.h **** 
 331:Drivers/STM32F0xx_HAL_Driver/Inc/stm32f0xx_ll_system.h **** /* Exported functions --------------------------------------------------------*/
 332:Drivers/STM32F0xx_HAL_Driver/Inc/stm32f0xx_ll_system.h **** /** @defgroup SYSTEM_LL_Exported_Functions SYSTEM Exported Functions
 333:Drivers/STM32F0xx_HAL_Driver/Inc/stm32f0xx_ll_system.h ****   * @{
 334:Drivers/STM32F0xx_HAL_Driver/Inc/stm32f0xx_ll_system.h ****   */
 335:Drivers/STM32F0xx_HAL_Driver/Inc/stm32f0xx_ll_system.h **** 
 336:Drivers/STM32F0xx_HAL_Driver/Inc/stm32f0xx_ll_system.h **** /** @defgroup SYSTEM_LL_EF_SYSCFG SYSCFG
 337:Drivers/STM32F0xx_HAL_Driver/Inc/stm32f0xx_ll_system.h ****   * @{
 338:Drivers/STM32F0xx_HAL_Driver/Inc/stm32f0xx_ll_system.h ****   */
 339:Drivers/STM32F0xx_HAL_Driver/Inc/stm32f0xx_ll_system.h **** 
 340:Drivers/STM32F0xx_HAL_Driver/Inc/stm32f0xx_ll_system.h **** /**
 341:Drivers/STM32F0xx_HAL_Driver/Inc/stm32f0xx_ll_system.h ****   * @brief  Set memory mapping at address 0x00000000
 342:Drivers/STM32F0xx_HAL_Driver/Inc/stm32f0xx_ll_system.h ****   * @rmtoll SYSCFG_CFGR1 MEM_MODE      LL_SYSCFG_SetRemapMemory
 343:Drivers/STM32F0xx_HAL_Driver/Inc/stm32f0xx_ll_system.h ****   * @param  Memory This parameter can be one of the following values:
 344:Drivers/STM32F0xx_HAL_Driver/Inc/stm32f0xx_ll_system.h ****   *         @arg @ref LL_SYSCFG_REMAP_FLASH
 345:Drivers/STM32F0xx_HAL_Driver/Inc/stm32f0xx_ll_system.h ****   *         @arg @ref LL_SYSCFG_REMAP_SYSTEMFLASH
 346:Drivers/STM32F0xx_HAL_Driver/Inc/stm32f0xx_ll_system.h ****   *         @arg @ref LL_SYSCFG_REMAP_SRAM
 347:Drivers/STM32F0xx_HAL_Driver/Inc/stm32f0xx_ll_system.h ****   * @retval None
 348:Drivers/STM32F0xx_HAL_Driver/Inc/stm32f0xx_ll_system.h ****   */
 349:Drivers/STM32F0xx_HAL_Driver/Inc/stm32f0xx_ll_system.h **** __STATIC_INLINE void LL_SYSCFG_SetRemapMemory(uint32_t Memory)
 350:Drivers/STM32F0xx_HAL_Driver/Inc/stm32f0xx_ll_system.h **** {
 351:Drivers/STM32F0xx_HAL_Driver/Inc/stm32f0xx_ll_system.h ****   MODIFY_REG(SYSCFG->CFGR1, SYSCFG_CFGR1_MEM_MODE, Memory);
 352:Drivers/STM32F0xx_HAL_Driver/Inc/stm32f0xx_ll_system.h **** }
 353:Drivers/STM32F0xx_HAL_Driver/Inc/stm32f0xx_ll_system.h **** 
 354:Drivers/STM32F0xx_HAL_Driver/Inc/stm32f0xx_ll_system.h **** /**
 355:Drivers/STM32F0xx_HAL_Driver/Inc/stm32f0xx_ll_system.h ****   * @brief  Get memory mapping at address 0x00000000
 356:Drivers/STM32F0xx_HAL_Driver/Inc/stm32f0xx_ll_system.h ****   * @rmtoll SYSCFG_CFGR1 MEM_MODE      LL_SYSCFG_GetRemapMemory
 357:Drivers/STM32F0xx_HAL_Driver/Inc/stm32f0xx_ll_system.h ****   * @retval Returned value can be one of the following values:
 358:Drivers/STM32F0xx_HAL_Driver/Inc/stm32f0xx_ll_system.h ****   *         @arg @ref LL_SYSCFG_REMAP_FLASH
 359:Drivers/STM32F0xx_HAL_Driver/Inc/stm32f0xx_ll_system.h ****   *         @arg @ref LL_SYSCFG_REMAP_SYSTEMFLASH
 360:Drivers/STM32F0xx_HAL_Driver/Inc/stm32f0xx_ll_system.h ****   *         @arg @ref LL_SYSCFG_REMAP_SRAM
 361:Drivers/STM32F0xx_HAL_Driver/Inc/stm32f0xx_ll_system.h ****   */
 362:Drivers/STM32F0xx_HAL_Driver/Inc/stm32f0xx_ll_system.h **** __STATIC_INLINE uint32_t LL_SYSCFG_GetRemapMemory(void)
 363:Drivers/STM32F0xx_HAL_Driver/Inc/stm32f0xx_ll_system.h **** {
 364:Drivers/STM32F0xx_HAL_Driver/Inc/stm32f0xx_ll_system.h ****   return (uint32_t)(READ_BIT(SYSCFG->CFGR1, SYSCFG_CFGR1_MEM_MODE));
 365:Drivers/STM32F0xx_HAL_Driver/Inc/stm32f0xx_ll_system.h **** }
ARM GAS  /tmp/ccfHzE7k.s 			page 35


 366:Drivers/STM32F0xx_HAL_Driver/Inc/stm32f0xx_ll_system.h **** 
 367:Drivers/STM32F0xx_HAL_Driver/Inc/stm32f0xx_ll_system.h **** #if defined(SYSCFG_CFGR1_IR_MOD)
 368:Drivers/STM32F0xx_HAL_Driver/Inc/stm32f0xx_ll_system.h **** /**
 369:Drivers/STM32F0xx_HAL_Driver/Inc/stm32f0xx_ll_system.h ****   * @brief  Set IR Modulation Envelope signal source.
 370:Drivers/STM32F0xx_HAL_Driver/Inc/stm32f0xx_ll_system.h ****   * @rmtoll SYSCFG_CFGR1 IR_MOD  LL_SYSCFG_SetIRModEnvelopeSignal
 371:Drivers/STM32F0xx_HAL_Driver/Inc/stm32f0xx_ll_system.h ****   * @param  Source This parameter can be one of the following values:
 372:Drivers/STM32F0xx_HAL_Driver/Inc/stm32f0xx_ll_system.h ****   *         @arg @ref LL_SYSCFG_IR_MOD_TIM16
 373:Drivers/STM32F0xx_HAL_Driver/Inc/stm32f0xx_ll_system.h ****   *         @arg @ref LL_SYSCFG_IR_MOD_USART1
 374:Drivers/STM32F0xx_HAL_Driver/Inc/stm32f0xx_ll_system.h ****   *         @arg @ref LL_SYSCFG_IR_MOD_USART4
 375:Drivers/STM32F0xx_HAL_Driver/Inc/stm32f0xx_ll_system.h ****   * @retval None
 376:Drivers/STM32F0xx_HAL_Driver/Inc/stm32f0xx_ll_system.h ****   */
 377:Drivers/STM32F0xx_HAL_Driver/Inc/stm32f0xx_ll_system.h **** __STATIC_INLINE void LL_SYSCFG_SetIRModEnvelopeSignal(uint32_t Source)
 378:Drivers/STM32F0xx_HAL_Driver/Inc/stm32f0xx_ll_system.h **** {
 379:Drivers/STM32F0xx_HAL_Driver/Inc/stm32f0xx_ll_system.h ****   MODIFY_REG(SYSCFG->CFGR1, SYSCFG_CFGR1_IR_MOD, Source);
 380:Drivers/STM32F0xx_HAL_Driver/Inc/stm32f0xx_ll_system.h **** }
 381:Drivers/STM32F0xx_HAL_Driver/Inc/stm32f0xx_ll_system.h **** 
 382:Drivers/STM32F0xx_HAL_Driver/Inc/stm32f0xx_ll_system.h **** /**
 383:Drivers/STM32F0xx_HAL_Driver/Inc/stm32f0xx_ll_system.h ****   * @brief  Get IR Modulation Envelope signal source.
 384:Drivers/STM32F0xx_HAL_Driver/Inc/stm32f0xx_ll_system.h ****   * @rmtoll SYSCFG_CFGR1 IR_MOD  LL_SYSCFG_GetIRModEnvelopeSignal
 385:Drivers/STM32F0xx_HAL_Driver/Inc/stm32f0xx_ll_system.h ****   * @retval Returned value can be one of the following values:
 386:Drivers/STM32F0xx_HAL_Driver/Inc/stm32f0xx_ll_system.h ****   *         @arg @ref LL_SYSCFG_IR_MOD_TIM16
 387:Drivers/STM32F0xx_HAL_Driver/Inc/stm32f0xx_ll_system.h ****   *         @arg @ref LL_SYSCFG_IR_MOD_USART1
 388:Drivers/STM32F0xx_HAL_Driver/Inc/stm32f0xx_ll_system.h ****   *         @arg @ref LL_SYSCFG_IR_MOD_USART4
 389:Drivers/STM32F0xx_HAL_Driver/Inc/stm32f0xx_ll_system.h ****   */
 390:Drivers/STM32F0xx_HAL_Driver/Inc/stm32f0xx_ll_system.h **** __STATIC_INLINE uint32_t LL_SYSCFG_GetIRModEnvelopeSignal(void)
 391:Drivers/STM32F0xx_HAL_Driver/Inc/stm32f0xx_ll_system.h **** {
 392:Drivers/STM32F0xx_HAL_Driver/Inc/stm32f0xx_ll_system.h ****   return (uint32_t)(READ_BIT(SYSCFG->CFGR1, SYSCFG_CFGR1_IR_MOD));
 393:Drivers/STM32F0xx_HAL_Driver/Inc/stm32f0xx_ll_system.h **** }
 394:Drivers/STM32F0xx_HAL_Driver/Inc/stm32f0xx_ll_system.h **** #endif /* SYSCFG_CFGR1_IR_MOD */
 395:Drivers/STM32F0xx_HAL_Driver/Inc/stm32f0xx_ll_system.h **** 
 396:Drivers/STM32F0xx_HAL_Driver/Inc/stm32f0xx_ll_system.h **** #if defined(SYSCFG_CFGR1_USART1TX_DMA_RMP) || defined(SYSCFG_CFGR1_USART1RX_DMA_RMP) || defined(SYS
 397:Drivers/STM32F0xx_HAL_Driver/Inc/stm32f0xx_ll_system.h **** /**
 398:Drivers/STM32F0xx_HAL_Driver/Inc/stm32f0xx_ll_system.h ****   * @brief  Set DMA request remapping bits for USART
 399:Drivers/STM32F0xx_HAL_Driver/Inc/stm32f0xx_ll_system.h ****   * @rmtoll SYSCFG_CFGR1 USART1TX_DMA_RMP  LL_SYSCFG_SetRemapDMA_USART\n
 400:Drivers/STM32F0xx_HAL_Driver/Inc/stm32f0xx_ll_system.h ****   *         SYSCFG_CFGR1 USART1RX_DMA_RMP  LL_SYSCFG_SetRemapDMA_USART\n
 401:Drivers/STM32F0xx_HAL_Driver/Inc/stm32f0xx_ll_system.h ****   *         SYSCFG_CFGR1 USART2_DMA_RMP  LL_SYSCFG_SetRemapDMA_USART\n
 402:Drivers/STM32F0xx_HAL_Driver/Inc/stm32f0xx_ll_system.h ****   *         SYSCFG_CFGR1 USART3_DMA_RMP  LL_SYSCFG_SetRemapDMA_USART
 403:Drivers/STM32F0xx_HAL_Driver/Inc/stm32f0xx_ll_system.h ****   * @param  Remap This parameter can be one of the following values:
 404:Drivers/STM32F0xx_HAL_Driver/Inc/stm32f0xx_ll_system.h ****   *         @arg @ref LL_SYSCFG_USART1TX_RMP_DMA1CH2 (*)
 405:Drivers/STM32F0xx_HAL_Driver/Inc/stm32f0xx_ll_system.h ****   *         @arg @ref LL_SYSCFG_USART1TX_RMP_DMA1CH4 (*)
 406:Drivers/STM32F0xx_HAL_Driver/Inc/stm32f0xx_ll_system.h ****   *         @arg @ref LL_SYSCFG_USART1RX_RMP_DMA1CH3 (*)
 407:Drivers/STM32F0xx_HAL_Driver/Inc/stm32f0xx_ll_system.h ****   *         @arg @ref LL_SYSCFG_USART1RX_RMP_DMA1CH5 (*)
 408:Drivers/STM32F0xx_HAL_Driver/Inc/stm32f0xx_ll_system.h ****   *         @arg @ref LL_SYSCFG_USART2_RMP_DMA1CH54 (*)
 409:Drivers/STM32F0xx_HAL_Driver/Inc/stm32f0xx_ll_system.h ****   *         @arg @ref LL_SYSCFG_USART2_RMP_DMA1CH67 (*)
 410:Drivers/STM32F0xx_HAL_Driver/Inc/stm32f0xx_ll_system.h ****   *         @arg @ref LL_SYSCFG_USART3_RMP_DMA1CH67 (*)
 411:Drivers/STM32F0xx_HAL_Driver/Inc/stm32f0xx_ll_system.h ****   *         @arg @ref LL_SYSCFG_USART3_RMP_DMA1CH32 (*)
 412:Drivers/STM32F0xx_HAL_Driver/Inc/stm32f0xx_ll_system.h ****   *
 413:Drivers/STM32F0xx_HAL_Driver/Inc/stm32f0xx_ll_system.h ****   *         (*) value not defined in all devices.
 414:Drivers/STM32F0xx_HAL_Driver/Inc/stm32f0xx_ll_system.h ****   * @retval None
 415:Drivers/STM32F0xx_HAL_Driver/Inc/stm32f0xx_ll_system.h ****   */
 416:Drivers/STM32F0xx_HAL_Driver/Inc/stm32f0xx_ll_system.h **** __STATIC_INLINE void LL_SYSCFG_SetRemapDMA_USART(uint32_t Remap)
 417:Drivers/STM32F0xx_HAL_Driver/Inc/stm32f0xx_ll_system.h **** {
 418:Drivers/STM32F0xx_HAL_Driver/Inc/stm32f0xx_ll_system.h ****   MODIFY_REG(SYSCFG->CFGR1, (Remap & 0x00FF00FFU) << 8U, (Remap & 0xFF00FF00U));
 419:Drivers/STM32F0xx_HAL_Driver/Inc/stm32f0xx_ll_system.h **** }
 420:Drivers/STM32F0xx_HAL_Driver/Inc/stm32f0xx_ll_system.h **** #endif /* SYSCFG_CFGR1_USART1TX_DMA_RMP || SYSCFG_CFGR1_USART1RX_DMA_RMP || SYSCFG_CFGR1_USART2_DMA
 421:Drivers/STM32F0xx_HAL_Driver/Inc/stm32f0xx_ll_system.h **** 
 422:Drivers/STM32F0xx_HAL_Driver/Inc/stm32f0xx_ll_system.h **** #if defined(SYSCFG_CFGR1_SPI2_DMA_RMP)
ARM GAS  /tmp/ccfHzE7k.s 			page 36


 423:Drivers/STM32F0xx_HAL_Driver/Inc/stm32f0xx_ll_system.h **** /**
 424:Drivers/STM32F0xx_HAL_Driver/Inc/stm32f0xx_ll_system.h ****   * @brief  Set DMA request remapping bits for SPI
 425:Drivers/STM32F0xx_HAL_Driver/Inc/stm32f0xx_ll_system.h ****   * @rmtoll SYSCFG_CFGR1 SPI2_DMA_RMP  LL_SYSCFG_SetRemapDMA_SPI
 426:Drivers/STM32F0xx_HAL_Driver/Inc/stm32f0xx_ll_system.h ****   * @param  Remap This parameter can be one of the following values:
 427:Drivers/STM32F0xx_HAL_Driver/Inc/stm32f0xx_ll_system.h ****   *         @arg @ref LL_SYSCFG_SPI2_RMP_DMA1_CH45
 428:Drivers/STM32F0xx_HAL_Driver/Inc/stm32f0xx_ll_system.h ****   *         @arg @ref LL_SYSCFG_SPI2_RMP_DMA1_CH67
 429:Drivers/STM32F0xx_HAL_Driver/Inc/stm32f0xx_ll_system.h ****   * @retval None
 430:Drivers/STM32F0xx_HAL_Driver/Inc/stm32f0xx_ll_system.h ****   */
 431:Drivers/STM32F0xx_HAL_Driver/Inc/stm32f0xx_ll_system.h **** __STATIC_INLINE void LL_SYSCFG_SetRemapDMA_SPI(uint32_t Remap)
 432:Drivers/STM32F0xx_HAL_Driver/Inc/stm32f0xx_ll_system.h **** {
 433:Drivers/STM32F0xx_HAL_Driver/Inc/stm32f0xx_ll_system.h ****   MODIFY_REG(SYSCFG->CFGR1, SYSCFG_CFGR1_SPI2_DMA_RMP, Remap);
 434:Drivers/STM32F0xx_HAL_Driver/Inc/stm32f0xx_ll_system.h **** }
 435:Drivers/STM32F0xx_HAL_Driver/Inc/stm32f0xx_ll_system.h **** #endif /* SYSCFG_CFGR1_SPI2_DMA_RMP */
 436:Drivers/STM32F0xx_HAL_Driver/Inc/stm32f0xx_ll_system.h **** 
 437:Drivers/STM32F0xx_HAL_Driver/Inc/stm32f0xx_ll_system.h **** #if defined(SYSCFG_CFGR1_I2C1_DMA_RMP)
 438:Drivers/STM32F0xx_HAL_Driver/Inc/stm32f0xx_ll_system.h **** /**
 439:Drivers/STM32F0xx_HAL_Driver/Inc/stm32f0xx_ll_system.h ****   * @brief  Set DMA request remapping bits for I2C
 440:Drivers/STM32F0xx_HAL_Driver/Inc/stm32f0xx_ll_system.h ****   * @rmtoll SYSCFG_CFGR1 I2C1_DMA_RMP  LL_SYSCFG_SetRemapDMA_I2C
 441:Drivers/STM32F0xx_HAL_Driver/Inc/stm32f0xx_ll_system.h ****   * @param  Remap This parameter can be one of the following values:
 442:Drivers/STM32F0xx_HAL_Driver/Inc/stm32f0xx_ll_system.h ****   *         @arg @ref LL_SYSCFG_I2C1_RMP_DMA1_CH32
 443:Drivers/STM32F0xx_HAL_Driver/Inc/stm32f0xx_ll_system.h ****   *         @arg @ref LL_SYSCFG_I2C1_RMP_DMA1_CH76
 444:Drivers/STM32F0xx_HAL_Driver/Inc/stm32f0xx_ll_system.h ****   * @retval None
 445:Drivers/STM32F0xx_HAL_Driver/Inc/stm32f0xx_ll_system.h ****   */
 446:Drivers/STM32F0xx_HAL_Driver/Inc/stm32f0xx_ll_system.h **** __STATIC_INLINE void LL_SYSCFG_SetRemapDMA_I2C(uint32_t Remap)
 447:Drivers/STM32F0xx_HAL_Driver/Inc/stm32f0xx_ll_system.h **** {
 448:Drivers/STM32F0xx_HAL_Driver/Inc/stm32f0xx_ll_system.h ****   MODIFY_REG(SYSCFG->CFGR1, SYSCFG_CFGR1_I2C1_DMA_RMP, Remap);
 449:Drivers/STM32F0xx_HAL_Driver/Inc/stm32f0xx_ll_system.h **** }
 450:Drivers/STM32F0xx_HAL_Driver/Inc/stm32f0xx_ll_system.h **** #endif /* SYSCFG_CFGR1_I2C1_DMA_RMP */
 451:Drivers/STM32F0xx_HAL_Driver/Inc/stm32f0xx_ll_system.h **** 
 452:Drivers/STM32F0xx_HAL_Driver/Inc/stm32f0xx_ll_system.h **** #if defined(SYSCFG_CFGR1_ADC_DMA_RMP)
 453:Drivers/STM32F0xx_HAL_Driver/Inc/stm32f0xx_ll_system.h **** /**
 454:Drivers/STM32F0xx_HAL_Driver/Inc/stm32f0xx_ll_system.h ****   * @brief  Set DMA request remapping bits for ADC
 455:Drivers/STM32F0xx_HAL_Driver/Inc/stm32f0xx_ll_system.h ****   * @rmtoll SYSCFG_CFGR1 ADC_DMA_RMP   LL_SYSCFG_SetRemapDMA_ADC
 456:Drivers/STM32F0xx_HAL_Driver/Inc/stm32f0xx_ll_system.h ****   * @param  Remap This parameter can be one of the following values:
 457:Drivers/STM32F0xx_HAL_Driver/Inc/stm32f0xx_ll_system.h ****   *         @arg @ref LL_SYSCFG_ADC1_RMP_DMA1_CH1
 458:Drivers/STM32F0xx_HAL_Driver/Inc/stm32f0xx_ll_system.h ****   *         @arg @ref LL_SYSCFG_ADC1_RMP_DMA1_CH2
 459:Drivers/STM32F0xx_HAL_Driver/Inc/stm32f0xx_ll_system.h ****   * @retval None
 460:Drivers/STM32F0xx_HAL_Driver/Inc/stm32f0xx_ll_system.h ****   */
 461:Drivers/STM32F0xx_HAL_Driver/Inc/stm32f0xx_ll_system.h **** __STATIC_INLINE void LL_SYSCFG_SetRemapDMA_ADC(uint32_t Remap)
 462:Drivers/STM32F0xx_HAL_Driver/Inc/stm32f0xx_ll_system.h **** {
 463:Drivers/STM32F0xx_HAL_Driver/Inc/stm32f0xx_ll_system.h ****   MODIFY_REG(SYSCFG->CFGR1, SYSCFG_CFGR1_ADC_DMA_RMP, Remap);
 464:Drivers/STM32F0xx_HAL_Driver/Inc/stm32f0xx_ll_system.h **** }
 465:Drivers/STM32F0xx_HAL_Driver/Inc/stm32f0xx_ll_system.h **** #endif /* SYSCFG_CFGR1_ADC_DMA_RMP */
 466:Drivers/STM32F0xx_HAL_Driver/Inc/stm32f0xx_ll_system.h **** 
 467:Drivers/STM32F0xx_HAL_Driver/Inc/stm32f0xx_ll_system.h **** #if defined(SYSCFG_CFGR1_TIM16_DMA_RMP) || defined(SYSCFG_CFGR1_TIM17_DMA_RMP) || defined(SYSCFG_CF
 468:Drivers/STM32F0xx_HAL_Driver/Inc/stm32f0xx_ll_system.h **** /**
 469:Drivers/STM32F0xx_HAL_Driver/Inc/stm32f0xx_ll_system.h ****   * @brief  Set DMA request remapping bits for TIM
 470:Drivers/STM32F0xx_HAL_Driver/Inc/stm32f0xx_ll_system.h ****   * @rmtoll SYSCFG_CFGR1 TIM16_DMA_RMP  LL_SYSCFG_SetRemapDMA_TIM\n
 471:Drivers/STM32F0xx_HAL_Driver/Inc/stm32f0xx_ll_system.h ****   *         SYSCFG_CFGR1 TIM17_DMA_RMP  LL_SYSCFG_SetRemapDMA_TIM\n
 472:Drivers/STM32F0xx_HAL_Driver/Inc/stm32f0xx_ll_system.h ****   *         SYSCFG_CFGR1 TIM16_DMA_RMP2 LL_SYSCFG_SetRemapDMA_TIM\n
 473:Drivers/STM32F0xx_HAL_Driver/Inc/stm32f0xx_ll_system.h ****   *         SYSCFG_CFGR1 TIM17_DMA_RMP2 LL_SYSCFG_SetRemapDMA_TIM\n
 474:Drivers/STM32F0xx_HAL_Driver/Inc/stm32f0xx_ll_system.h ****   *         SYSCFG_CFGR1 TIM1_DMA_RMP   LL_SYSCFG_SetRemapDMA_TIM\n
 475:Drivers/STM32F0xx_HAL_Driver/Inc/stm32f0xx_ll_system.h ****   *         SYSCFG_CFGR1 TIM2_DMA_RMP   LL_SYSCFG_SetRemapDMA_TIM\n
 476:Drivers/STM32F0xx_HAL_Driver/Inc/stm32f0xx_ll_system.h ****   *         SYSCFG_CFGR1 TIM3_DMA_RMP   LL_SYSCFG_SetRemapDMA_TIM
 477:Drivers/STM32F0xx_HAL_Driver/Inc/stm32f0xx_ll_system.h ****   * @param  Remap This parameter can be one of the following values:
 478:Drivers/STM32F0xx_HAL_Driver/Inc/stm32f0xx_ll_system.h ****   *         @arg @ref LL_SYSCFG_TIM16_RMP_DMA1_CH3 (*)
 479:Drivers/STM32F0xx_HAL_Driver/Inc/stm32f0xx_ll_system.h ****   *         @arg @ref LL_SYSCFG_TIM16_RMP_DMA1_CH4 (*)
ARM GAS  /tmp/ccfHzE7k.s 			page 37


 480:Drivers/STM32F0xx_HAL_Driver/Inc/stm32f0xx_ll_system.h ****   *         @arg @ref LL_SYSCFG_TIM16_RMP_DMA1_CH6 (*)
 481:Drivers/STM32F0xx_HAL_Driver/Inc/stm32f0xx_ll_system.h ****   *         @arg @ref LL_SYSCFG_TIM17_RMP_DMA1_CH1 (*)
 482:Drivers/STM32F0xx_HAL_Driver/Inc/stm32f0xx_ll_system.h ****   *         @arg @ref LL_SYSCFG_TIM17_RMP_DMA1_CH2 (*)
 483:Drivers/STM32F0xx_HAL_Driver/Inc/stm32f0xx_ll_system.h ****   *         @arg @ref LL_SYSCFG_TIM17_RMP_DMA1_CH7 (*)
 484:Drivers/STM32F0xx_HAL_Driver/Inc/stm32f0xx_ll_system.h ****   *         @arg @ref LL_SYSCFG_TIM1_RMP_DMA1_CH234 (*)
 485:Drivers/STM32F0xx_HAL_Driver/Inc/stm32f0xx_ll_system.h ****   *         @arg @ref LL_SYSCFG_TIM1_RMP_DMA1_CH6 (*)
 486:Drivers/STM32F0xx_HAL_Driver/Inc/stm32f0xx_ll_system.h ****   *         @arg @ref LL_SYSCFG_TIM2_RMP_DMA1_CH34 (*)
 487:Drivers/STM32F0xx_HAL_Driver/Inc/stm32f0xx_ll_system.h ****   *         @arg @ref LL_SYSCFG_TIM2_RMP_DMA1_CH7 (*)
 488:Drivers/STM32F0xx_HAL_Driver/Inc/stm32f0xx_ll_system.h ****   *         @arg @ref LL_SYSCFG_TIM3_RMP_DMA1_CH4 (*)
 489:Drivers/STM32F0xx_HAL_Driver/Inc/stm32f0xx_ll_system.h ****   *         @arg @ref LL_SYSCFG_TIM3_RMP_DMA1_CH6 (*)
 490:Drivers/STM32F0xx_HAL_Driver/Inc/stm32f0xx_ll_system.h ****   *
 491:Drivers/STM32F0xx_HAL_Driver/Inc/stm32f0xx_ll_system.h ****   *         (*) value not defined in all devices.
 492:Drivers/STM32F0xx_HAL_Driver/Inc/stm32f0xx_ll_system.h ****   * @retval None
 493:Drivers/STM32F0xx_HAL_Driver/Inc/stm32f0xx_ll_system.h ****   */
 494:Drivers/STM32F0xx_HAL_Driver/Inc/stm32f0xx_ll_system.h **** __STATIC_INLINE void LL_SYSCFG_SetRemapDMA_TIM(uint32_t Remap)
 495:Drivers/STM32F0xx_HAL_Driver/Inc/stm32f0xx_ll_system.h **** {
 496:Drivers/STM32F0xx_HAL_Driver/Inc/stm32f0xx_ll_system.h ****   MODIFY_REG(SYSCFG->CFGR1, (Remap & 0x00FF00FFU) << 8U, (Remap & 0xFF00FF00U));
 497:Drivers/STM32F0xx_HAL_Driver/Inc/stm32f0xx_ll_system.h **** }
 498:Drivers/STM32F0xx_HAL_Driver/Inc/stm32f0xx_ll_system.h **** #endif /* SYSCFG_CFGR1_TIM16_DMA_RMP || SYSCFG_CFGR1_TIM17_DMA_RMP || SYSCFG_CFGR1_TIM1_DMA_RMP || 
 499:Drivers/STM32F0xx_HAL_Driver/Inc/stm32f0xx_ll_system.h **** 
 500:Drivers/STM32F0xx_HAL_Driver/Inc/stm32f0xx_ll_system.h **** #if defined(SYSCFG_CFGR1_PA11_PA12_RMP)
 501:Drivers/STM32F0xx_HAL_Driver/Inc/stm32f0xx_ll_system.h **** /**
 502:Drivers/STM32F0xx_HAL_Driver/Inc/stm32f0xx_ll_system.h ****   * @brief  Enable PIN pair PA11/12 mapped instead of PA9/10 (control the mapping of either
 503:Drivers/STM32F0xx_HAL_Driver/Inc/stm32f0xx_ll_system.h ****   * PA9/10 or PA11/12 pin pair on small pin-count packages)
 504:Drivers/STM32F0xx_HAL_Driver/Inc/stm32f0xx_ll_system.h ****   * @rmtoll SYSCFG_CFGR1 PA11_PA12_RMP  LL_SYSCFG_EnablePinRemap
 505:Drivers/STM32F0xx_HAL_Driver/Inc/stm32f0xx_ll_system.h ****   * @retval None
 506:Drivers/STM32F0xx_HAL_Driver/Inc/stm32f0xx_ll_system.h ****   */
 507:Drivers/STM32F0xx_HAL_Driver/Inc/stm32f0xx_ll_system.h **** __STATIC_INLINE void LL_SYSCFG_EnablePinRemap(void)
 508:Drivers/STM32F0xx_HAL_Driver/Inc/stm32f0xx_ll_system.h **** {
 509:Drivers/STM32F0xx_HAL_Driver/Inc/stm32f0xx_ll_system.h ****   SET_BIT(SYSCFG->CFGR1, SYSCFG_CFGR1_PA11_PA12_RMP);
 510:Drivers/STM32F0xx_HAL_Driver/Inc/stm32f0xx_ll_system.h **** }
 511:Drivers/STM32F0xx_HAL_Driver/Inc/stm32f0xx_ll_system.h **** 
 512:Drivers/STM32F0xx_HAL_Driver/Inc/stm32f0xx_ll_system.h **** /**
 513:Drivers/STM32F0xx_HAL_Driver/Inc/stm32f0xx_ll_system.h ****   * @brief  Disable PIN pair PA11/12 mapped instead of PA9/10 (control the mapping of either
 514:Drivers/STM32F0xx_HAL_Driver/Inc/stm32f0xx_ll_system.h ****   * PA9/10 or PA11/12 pin pair on small pin-count packages)
 515:Drivers/STM32F0xx_HAL_Driver/Inc/stm32f0xx_ll_system.h ****   * @rmtoll SYSCFG_CFGR1 PA11_PA12_RMP  LL_SYSCFG_DisablePinRemap
 516:Drivers/STM32F0xx_HAL_Driver/Inc/stm32f0xx_ll_system.h ****   * @retval None
 517:Drivers/STM32F0xx_HAL_Driver/Inc/stm32f0xx_ll_system.h ****   */
 518:Drivers/STM32F0xx_HAL_Driver/Inc/stm32f0xx_ll_system.h **** __STATIC_INLINE void LL_SYSCFG_DisablePinRemap(void)
 519:Drivers/STM32F0xx_HAL_Driver/Inc/stm32f0xx_ll_system.h **** {
 520:Drivers/STM32F0xx_HAL_Driver/Inc/stm32f0xx_ll_system.h ****   CLEAR_BIT(SYSCFG->CFGR1, SYSCFG_CFGR1_PA11_PA12_RMP);
 521:Drivers/STM32F0xx_HAL_Driver/Inc/stm32f0xx_ll_system.h **** }
 522:Drivers/STM32F0xx_HAL_Driver/Inc/stm32f0xx_ll_system.h **** #endif /* SYSCFG_CFGR1_PA11_PA12_RMP */
 523:Drivers/STM32F0xx_HAL_Driver/Inc/stm32f0xx_ll_system.h **** 
 524:Drivers/STM32F0xx_HAL_Driver/Inc/stm32f0xx_ll_system.h **** /**
 525:Drivers/STM32F0xx_HAL_Driver/Inc/stm32f0xx_ll_system.h ****   * @brief  Enable the I2C fast mode plus driving capability.
 526:Drivers/STM32F0xx_HAL_Driver/Inc/stm32f0xx_ll_system.h ****   * @rmtoll SYSCFG_CFGR1 I2C_FMP_PB6   LL_SYSCFG_EnableFastModePlus\n
 527:Drivers/STM32F0xx_HAL_Driver/Inc/stm32f0xx_ll_system.h ****   *         SYSCFG_CFGR1 I2C_FMP_PB7   LL_SYSCFG_EnableFastModePlus\n
 528:Drivers/STM32F0xx_HAL_Driver/Inc/stm32f0xx_ll_system.h ****   *         SYSCFG_CFGR1 I2C_FMP_PB8   LL_SYSCFG_EnableFastModePlus\n
 529:Drivers/STM32F0xx_HAL_Driver/Inc/stm32f0xx_ll_system.h ****   *         SYSCFG_CFGR1 I2C_FMP_PB9   LL_SYSCFG_EnableFastModePlus\n
 530:Drivers/STM32F0xx_HAL_Driver/Inc/stm32f0xx_ll_system.h ****   *         SYSCFG_CFGR1 I2C_FMP_I2C1  LL_SYSCFG_EnableFastModePlus\n
 531:Drivers/STM32F0xx_HAL_Driver/Inc/stm32f0xx_ll_system.h ****   *         SYSCFG_CFGR1 I2C_FMP_I2C2  LL_SYSCFG_EnableFastModePlus\n
 532:Drivers/STM32F0xx_HAL_Driver/Inc/stm32f0xx_ll_system.h ****   *         SYSCFG_CFGR1 I2C_FMP_PA9   LL_SYSCFG_EnableFastModePlus\n
 533:Drivers/STM32F0xx_HAL_Driver/Inc/stm32f0xx_ll_system.h ****   *         SYSCFG_CFGR1 I2C_FMP_PA10  LL_SYSCFG_EnableFastModePlus
 534:Drivers/STM32F0xx_HAL_Driver/Inc/stm32f0xx_ll_system.h ****   * @param  ConfigFastModePlus This parameter can be a combination of the following values:
 535:Drivers/STM32F0xx_HAL_Driver/Inc/stm32f0xx_ll_system.h ****   *         @arg @ref LL_SYSCFG_I2C_FASTMODEPLUS_PB6
 536:Drivers/STM32F0xx_HAL_Driver/Inc/stm32f0xx_ll_system.h ****   *         @arg @ref LL_SYSCFG_I2C_FASTMODEPLUS_PB7
ARM GAS  /tmp/ccfHzE7k.s 			page 38


 537:Drivers/STM32F0xx_HAL_Driver/Inc/stm32f0xx_ll_system.h ****   *         @arg @ref LL_SYSCFG_I2C_FASTMODEPLUS_PB8
 538:Drivers/STM32F0xx_HAL_Driver/Inc/stm32f0xx_ll_system.h ****   *         @arg @ref LL_SYSCFG_I2C_FASTMODEPLUS_PB9
 539:Drivers/STM32F0xx_HAL_Driver/Inc/stm32f0xx_ll_system.h ****   *         @arg @ref LL_SYSCFG_I2C_FASTMODEPLUS_I2C1 (*)
 540:Drivers/STM32F0xx_HAL_Driver/Inc/stm32f0xx_ll_system.h ****   *         @arg @ref LL_SYSCFG_I2C_FASTMODEPLUS_I2C2 (*)
 541:Drivers/STM32F0xx_HAL_Driver/Inc/stm32f0xx_ll_system.h ****   *         @arg @ref LL_SYSCFG_I2C_FASTMODEPLUS_PA9 (*)
 542:Drivers/STM32F0xx_HAL_Driver/Inc/stm32f0xx_ll_system.h ****   *         @arg @ref LL_SYSCFG_I2C_FASTMODEPLUS_PA10 (*)
 543:Drivers/STM32F0xx_HAL_Driver/Inc/stm32f0xx_ll_system.h ****   *
 544:Drivers/STM32F0xx_HAL_Driver/Inc/stm32f0xx_ll_system.h ****   *         (*) value not defined in all devices
 545:Drivers/STM32F0xx_HAL_Driver/Inc/stm32f0xx_ll_system.h ****   * @retval None
 546:Drivers/STM32F0xx_HAL_Driver/Inc/stm32f0xx_ll_system.h ****   */
 547:Drivers/STM32F0xx_HAL_Driver/Inc/stm32f0xx_ll_system.h **** __STATIC_INLINE void LL_SYSCFG_EnableFastModePlus(uint32_t ConfigFastModePlus)
 548:Drivers/STM32F0xx_HAL_Driver/Inc/stm32f0xx_ll_system.h **** {
 549:Drivers/STM32F0xx_HAL_Driver/Inc/stm32f0xx_ll_system.h ****   SET_BIT(SYSCFG->CFGR1, ConfigFastModePlus);
 550:Drivers/STM32F0xx_HAL_Driver/Inc/stm32f0xx_ll_system.h **** }
 551:Drivers/STM32F0xx_HAL_Driver/Inc/stm32f0xx_ll_system.h **** 
 552:Drivers/STM32F0xx_HAL_Driver/Inc/stm32f0xx_ll_system.h **** /**
 553:Drivers/STM32F0xx_HAL_Driver/Inc/stm32f0xx_ll_system.h ****   * @brief  Disable the I2C fast mode plus driving capability.
 554:Drivers/STM32F0xx_HAL_Driver/Inc/stm32f0xx_ll_system.h ****   * @rmtoll SYSCFG_CFGR1 I2C_FMP_PB6   LL_SYSCFG_DisableFastModePlus\n
 555:Drivers/STM32F0xx_HAL_Driver/Inc/stm32f0xx_ll_system.h ****   *         SYSCFG_CFGR1 I2C_FMP_PB7   LL_SYSCFG_DisableFastModePlus\n
 556:Drivers/STM32F0xx_HAL_Driver/Inc/stm32f0xx_ll_system.h ****   *         SYSCFG_CFGR1 I2C_FMP_PB8   LL_SYSCFG_DisableFastModePlus\n
 557:Drivers/STM32F0xx_HAL_Driver/Inc/stm32f0xx_ll_system.h ****   *         SYSCFG_CFGR1 I2C_FMP_PB9   LL_SYSCFG_DisableFastModePlus\n
 558:Drivers/STM32F0xx_HAL_Driver/Inc/stm32f0xx_ll_system.h ****   *         SYSCFG_CFGR1 I2C_FMP_I2C1  LL_SYSCFG_DisableFastModePlus\n
 559:Drivers/STM32F0xx_HAL_Driver/Inc/stm32f0xx_ll_system.h ****   *         SYSCFG_CFGR1 I2C_FMP_I2C2  LL_SYSCFG_DisableFastModePlus\n
 560:Drivers/STM32F0xx_HAL_Driver/Inc/stm32f0xx_ll_system.h ****   *         SYSCFG_CFGR1 I2C_FMP_PA9   LL_SYSCFG_DisableFastModePlus\n
 561:Drivers/STM32F0xx_HAL_Driver/Inc/stm32f0xx_ll_system.h ****   *         SYSCFG_CFGR1 I2C_FMP_PA10  LL_SYSCFG_DisableFastModePlus
 562:Drivers/STM32F0xx_HAL_Driver/Inc/stm32f0xx_ll_system.h ****   * @param  ConfigFastModePlus This parameter can be a combination of the following values:
 563:Drivers/STM32F0xx_HAL_Driver/Inc/stm32f0xx_ll_system.h ****   *         @arg @ref LL_SYSCFG_I2C_FASTMODEPLUS_PB6
 564:Drivers/STM32F0xx_HAL_Driver/Inc/stm32f0xx_ll_system.h ****   *         @arg @ref LL_SYSCFG_I2C_FASTMODEPLUS_PB7
 565:Drivers/STM32F0xx_HAL_Driver/Inc/stm32f0xx_ll_system.h ****   *         @arg @ref LL_SYSCFG_I2C_FASTMODEPLUS_PB8
 566:Drivers/STM32F0xx_HAL_Driver/Inc/stm32f0xx_ll_system.h ****   *         @arg @ref LL_SYSCFG_I2C_FASTMODEPLUS_PB9
 567:Drivers/STM32F0xx_HAL_Driver/Inc/stm32f0xx_ll_system.h ****   *         @arg @ref LL_SYSCFG_I2C_FASTMODEPLUS_I2C1 (*)
 568:Drivers/STM32F0xx_HAL_Driver/Inc/stm32f0xx_ll_system.h ****   *         @arg @ref LL_SYSCFG_I2C_FASTMODEPLUS_I2C2 (*)
 569:Drivers/STM32F0xx_HAL_Driver/Inc/stm32f0xx_ll_system.h ****   *         @arg @ref LL_SYSCFG_I2C_FASTMODEPLUS_PA9 (*)
 570:Drivers/STM32F0xx_HAL_Driver/Inc/stm32f0xx_ll_system.h ****   *         @arg @ref LL_SYSCFG_I2C_FASTMODEPLUS_PA10 (*)
 571:Drivers/STM32F0xx_HAL_Driver/Inc/stm32f0xx_ll_system.h ****   *
 572:Drivers/STM32F0xx_HAL_Driver/Inc/stm32f0xx_ll_system.h ****   *         (*) value not defined in all devices
 573:Drivers/STM32F0xx_HAL_Driver/Inc/stm32f0xx_ll_system.h ****   * @retval None
 574:Drivers/STM32F0xx_HAL_Driver/Inc/stm32f0xx_ll_system.h ****   */
 575:Drivers/STM32F0xx_HAL_Driver/Inc/stm32f0xx_ll_system.h **** __STATIC_INLINE void LL_SYSCFG_DisableFastModePlus(uint32_t ConfigFastModePlus)
 576:Drivers/STM32F0xx_HAL_Driver/Inc/stm32f0xx_ll_system.h **** {
 577:Drivers/STM32F0xx_HAL_Driver/Inc/stm32f0xx_ll_system.h ****   CLEAR_BIT(SYSCFG->CFGR1, ConfigFastModePlus);
 578:Drivers/STM32F0xx_HAL_Driver/Inc/stm32f0xx_ll_system.h **** }
 579:Drivers/STM32F0xx_HAL_Driver/Inc/stm32f0xx_ll_system.h **** 
 580:Drivers/STM32F0xx_HAL_Driver/Inc/stm32f0xx_ll_system.h **** /**
 581:Drivers/STM32F0xx_HAL_Driver/Inc/stm32f0xx_ll_system.h ****   * @brief  Configure source input for the EXTI external interrupt.
 582:Drivers/STM32F0xx_HAL_Driver/Inc/stm32f0xx_ll_system.h ****   * @rmtoll SYSCFG_EXTICR1 EXTI0         LL_SYSCFG_SetEXTISource\n
 583:Drivers/STM32F0xx_HAL_Driver/Inc/stm32f0xx_ll_system.h ****   *         SYSCFG_EXTICR1 EXTI1         LL_SYSCFG_SetEXTISource\n
 584:Drivers/STM32F0xx_HAL_Driver/Inc/stm32f0xx_ll_system.h ****   *         SYSCFG_EXTICR1 EXTI2         LL_SYSCFG_SetEXTISource\n
 585:Drivers/STM32F0xx_HAL_Driver/Inc/stm32f0xx_ll_system.h ****   *         SYSCFG_EXTICR1 EXTI3         LL_SYSCFG_SetEXTISource\n
 586:Drivers/STM32F0xx_HAL_Driver/Inc/stm32f0xx_ll_system.h ****   *         SYSCFG_EXTICR2 EXTI4         LL_SYSCFG_SetEXTISource\n
 587:Drivers/STM32F0xx_HAL_Driver/Inc/stm32f0xx_ll_system.h ****   *         SYSCFG_EXTICR2 EXTI5         LL_SYSCFG_SetEXTISource\n
 588:Drivers/STM32F0xx_HAL_Driver/Inc/stm32f0xx_ll_system.h ****   *         SYSCFG_EXTICR2 EXTI6         LL_SYSCFG_SetEXTISource\n
 589:Drivers/STM32F0xx_HAL_Driver/Inc/stm32f0xx_ll_system.h ****   *         SYSCFG_EXTICR2 EXTI7         LL_SYSCFG_SetEXTISource\n
 590:Drivers/STM32F0xx_HAL_Driver/Inc/stm32f0xx_ll_system.h ****   *         SYSCFG_EXTICR3 EXTI8         LL_SYSCFG_SetEXTISource\n
 591:Drivers/STM32F0xx_HAL_Driver/Inc/stm32f0xx_ll_system.h ****   *         SYSCFG_EXTICR3 EXTI9         LL_SYSCFG_SetEXTISource\n
 592:Drivers/STM32F0xx_HAL_Driver/Inc/stm32f0xx_ll_system.h ****   *         SYSCFG_EXTICR3 EXTI10        LL_SYSCFG_SetEXTISource\n
 593:Drivers/STM32F0xx_HAL_Driver/Inc/stm32f0xx_ll_system.h ****   *         SYSCFG_EXTICR3 EXTI11        LL_SYSCFG_SetEXTISource\n
ARM GAS  /tmp/ccfHzE7k.s 			page 39


 594:Drivers/STM32F0xx_HAL_Driver/Inc/stm32f0xx_ll_system.h ****   *         SYSCFG_EXTICR4 EXTI12        LL_SYSCFG_SetEXTISource\n
 595:Drivers/STM32F0xx_HAL_Driver/Inc/stm32f0xx_ll_system.h ****   *         SYSCFG_EXTICR4 EXTI13        LL_SYSCFG_SetEXTISource\n
 596:Drivers/STM32F0xx_HAL_Driver/Inc/stm32f0xx_ll_system.h ****   *         SYSCFG_EXTICR4 EXTI14        LL_SYSCFG_SetEXTISource\n
 597:Drivers/STM32F0xx_HAL_Driver/Inc/stm32f0xx_ll_system.h ****   *         SYSCFG_EXTICR4 EXTI15        LL_SYSCFG_SetEXTISource
 598:Drivers/STM32F0xx_HAL_Driver/Inc/stm32f0xx_ll_system.h ****   * @param  Port This parameter can be one of the following values:
 599:Drivers/STM32F0xx_HAL_Driver/Inc/stm32f0xx_ll_system.h ****   *         @arg @ref LL_SYSCFG_EXTI_PORTA
 600:Drivers/STM32F0xx_HAL_Driver/Inc/stm32f0xx_ll_system.h ****   *         @arg @ref LL_SYSCFG_EXTI_PORTB
 601:Drivers/STM32F0xx_HAL_Driver/Inc/stm32f0xx_ll_system.h ****   *         @arg @ref LL_SYSCFG_EXTI_PORTC
 602:Drivers/STM32F0xx_HAL_Driver/Inc/stm32f0xx_ll_system.h ****   *         @arg @ref LL_SYSCFG_EXTI_PORTD (*)
 603:Drivers/STM32F0xx_HAL_Driver/Inc/stm32f0xx_ll_system.h ****   *         @arg @ref LL_SYSCFG_EXTI_PORTE (*)
 604:Drivers/STM32F0xx_HAL_Driver/Inc/stm32f0xx_ll_system.h ****   *         @arg @ref LL_SYSCFG_EXTI_PORTF
 605:Drivers/STM32F0xx_HAL_Driver/Inc/stm32f0xx_ll_system.h ****   *
 606:Drivers/STM32F0xx_HAL_Driver/Inc/stm32f0xx_ll_system.h ****   *         (*) value not defined in all devices
 607:Drivers/STM32F0xx_HAL_Driver/Inc/stm32f0xx_ll_system.h ****   * @param  Line This parameter can be one of the following values:
 608:Drivers/STM32F0xx_HAL_Driver/Inc/stm32f0xx_ll_system.h ****   *         @arg @ref LL_SYSCFG_EXTI_LINE0
 609:Drivers/STM32F0xx_HAL_Driver/Inc/stm32f0xx_ll_system.h ****   *         @arg @ref LL_SYSCFG_EXTI_LINE1
 610:Drivers/STM32F0xx_HAL_Driver/Inc/stm32f0xx_ll_system.h ****   *         @arg @ref LL_SYSCFG_EXTI_LINE2
 611:Drivers/STM32F0xx_HAL_Driver/Inc/stm32f0xx_ll_system.h ****   *         @arg @ref LL_SYSCFG_EXTI_LINE3
 612:Drivers/STM32F0xx_HAL_Driver/Inc/stm32f0xx_ll_system.h ****   *         @arg @ref LL_SYSCFG_EXTI_LINE4
 613:Drivers/STM32F0xx_HAL_Driver/Inc/stm32f0xx_ll_system.h ****   *         @arg @ref LL_SYSCFG_EXTI_LINE5
 614:Drivers/STM32F0xx_HAL_Driver/Inc/stm32f0xx_ll_system.h ****   *         @arg @ref LL_SYSCFG_EXTI_LINE6
 615:Drivers/STM32F0xx_HAL_Driver/Inc/stm32f0xx_ll_system.h ****   *         @arg @ref LL_SYSCFG_EXTI_LINE7
 616:Drivers/STM32F0xx_HAL_Driver/Inc/stm32f0xx_ll_system.h ****   *         @arg @ref LL_SYSCFG_EXTI_LINE8
 617:Drivers/STM32F0xx_HAL_Driver/Inc/stm32f0xx_ll_system.h ****   *         @arg @ref LL_SYSCFG_EXTI_LINE9
 618:Drivers/STM32F0xx_HAL_Driver/Inc/stm32f0xx_ll_system.h ****   *         @arg @ref LL_SYSCFG_EXTI_LINE10
 619:Drivers/STM32F0xx_HAL_Driver/Inc/stm32f0xx_ll_system.h ****   *         @arg @ref LL_SYSCFG_EXTI_LINE11
 620:Drivers/STM32F0xx_HAL_Driver/Inc/stm32f0xx_ll_system.h ****   *         @arg @ref LL_SYSCFG_EXTI_LINE12
 621:Drivers/STM32F0xx_HAL_Driver/Inc/stm32f0xx_ll_system.h ****   *         @arg @ref LL_SYSCFG_EXTI_LINE13
 622:Drivers/STM32F0xx_HAL_Driver/Inc/stm32f0xx_ll_system.h ****   *         @arg @ref LL_SYSCFG_EXTI_LINE14
 623:Drivers/STM32F0xx_HAL_Driver/Inc/stm32f0xx_ll_system.h ****   *         @arg @ref LL_SYSCFG_EXTI_LINE15
 624:Drivers/STM32F0xx_HAL_Driver/Inc/stm32f0xx_ll_system.h ****   * @retval None
 625:Drivers/STM32F0xx_HAL_Driver/Inc/stm32f0xx_ll_system.h ****   */
 626:Drivers/STM32F0xx_HAL_Driver/Inc/stm32f0xx_ll_system.h **** __STATIC_INLINE void LL_SYSCFG_SetEXTISource(uint32_t Port, uint32_t Line)
 627:Drivers/STM32F0xx_HAL_Driver/Inc/stm32f0xx_ll_system.h **** {
 628:Drivers/STM32F0xx_HAL_Driver/Inc/stm32f0xx_ll_system.h ****   MODIFY_REG(SYSCFG->EXTICR[Line & 0xFF], SYSCFG_EXTICR1_EXTI0 << (Line >> 16), Port << (Line >> 16
 325              		.loc 4 628 0
 326 00f4 0F21     		movs	r1, #15
 327 00f6 0F4A     		ldr	r2, .L2+8
 328              	.LBE61:
 329              	.LBE60:
 116:Core/Src/gpio.c **** 
 117:Core/Src/gpio.c ****   /**/
 118:Core/Src/gpio.c ****   LL_SYSCFG_SetEXTISource(LL_SYSCFG_EXTI_PORTA, LL_SYSCFG_EXTI_LINE0);
 119:Core/Src/gpio.c **** 
 120:Core/Src/gpio.c ****   /**/
 121:Core/Src/gpio.c ****   LL_GPIO_SetPinPull(B1_GPIO_Port, B1_Pin, LL_GPIO_PULL_NO);
 122:Core/Src/gpio.c **** 
 123:Core/Src/gpio.c ****   /**/
 124:Core/Src/gpio.c ****   LL_GPIO_SetPinMode(B1_GPIO_Port, B1_Pin, LL_GPIO_MODE_INPUT);
 125:Core/Src/gpio.c **** 
 126:Core/Src/gpio.c ****   /**/
 127:Core/Src/gpio.c ****   EXTI_InitStruct.Line_0_31 = LL_EXTI_LINE_0;
 128:Core/Src/gpio.c ****   EXTI_InitStruct.LineCommand = ENABLE;
 129:Core/Src/gpio.c ****   EXTI_InitStruct.Mode = LL_EXTI_MODE_EVENT;
 130:Core/Src/gpio.c ****   EXTI_InitStruct.Trigger = LL_EXTI_TRIGGER_RISING;
 131:Core/Src/gpio.c ****   LL_EXTI_Init(&EXTI_InitStruct);
 330              		.loc 1 131 0
ARM GAS  /tmp/ccfHzE7k.s 			page 40


 331 00f8 3800     		movs	r0, r7
 332              	.LBB63:
 333              	.LBB62:
 334              		.loc 4 628 0
 335 00fa 9368     		ldr	r3, [r2, #8]
 336 00fc 8B43     		bics	r3, r1
 337 00fe 9360     		str	r3, [r2, #8]
 338              	.LVL16:
 339              	.LBE62:
 340              	.LBE63:
 341              	.LBB64:
 342              	.LBB65:
 476:Drivers/STM32F0xx_HAL_Driver/Inc/stm32f0xx_ll_gpio.h **** }
 343              		.loc 3 476 0
 344 0100 9023     		movs	r3, #144
 345 0102 4146     		mov	r1, r8
 346 0104 DB05     		lsls	r3, r3, #23
 347 0106 DA68     		ldr	r2, [r3, #12]
 348 0108 8A43     		bics	r2, r1
 349 010a DA60     		str	r2, [r3, #12]
 350              	.LVL17:
 351              	.LBE65:
 352              	.LBE64:
 353              	.LBB66:
 354              	.LBB67:
 270:Drivers/STM32F0xx_HAL_Driver/Inc/stm32f0xx_ll_gpio.h **** }
 355              		.loc 3 270 0
 356 010c 1A68     		ldr	r2, [r3]
 357 010e 8A43     		bics	r2, r1
 358 0110 1A60     		str	r2, [r3]
 359              	.LVL18:
 360              	.LBE67:
 361              	.LBE66:
 127:Core/Src/gpio.c ****   EXTI_InitStruct.LineCommand = ENABLE;
 362              		.loc 1 127 0
 363 0112 0294     		str	r4, [sp, #8]
 128:Core/Src/gpio.c ****   EXTI_InitStruct.Mode = LL_EXTI_MODE_EVENT;
 364              		.loc 1 128 0
 365 0114 3C71     		strb	r4, [r7, #4]
 129:Core/Src/gpio.c ****   EXTI_InitStruct.Trigger = LL_EXTI_TRIGGER_RISING;
 366              		.loc 1 129 0
 367 0116 7C71     		strb	r4, [r7, #5]
 130:Core/Src/gpio.c ****   LL_EXTI_Init(&EXTI_InitStruct);
 368              		.loc 1 130 0
 369 0118 BC71     		strb	r4, [r7, #6]
 370              		.loc 1 131 0
 371 011a FFF7FEFF 		bl	LL_EXTI_Init
 372              	.LVL19:
 132:Core/Src/gpio.c **** 
 133:Core/Src/gpio.c **** }
 373              		.loc 1 133 0
 374 011e 0BB0     		add	sp, sp, #44
 375              		@ sp needed
 376 0120 3CBC     		pop	{r2, r3, r4, r5}
 377 0122 9046     		mov	r8, r2
 378 0124 9946     		mov	r9, r3
 379 0126 A246     		mov	r10, r4
ARM GAS  /tmp/ccfHzE7k.s 			page 41


 380 0128 AB46     		mov	fp, r5
 381 012a F0BD     		pop	{r4, r5, r6, r7, pc}
 382              	.L3:
 383              		.align	2
 384              	.L2:
 385 012c 00100240 		.word	1073876992
 386 0130 00080048 		.word	1207961600
 387 0134 00000140 		.word	1073807360
 388              		.cfi_endproc
 389              	.LFE521:
 391              		.text
 392              	.Letext0:
 393              		.file 5 "/usr/include/newlib/machine/_default_types.h"
 394              		.file 6 "/usr/include/newlib/sys/_stdint.h"
 395              		.file 7 "Drivers/CMSIS/Device/ST/STM32F0xx/Include/system_stm32f0xx.h"
 396              		.file 8 "Drivers/CMSIS/Device/ST/STM32F0xx/Include/stm32f051x8.h"
 397              		.file 9 "Drivers/CMSIS/Device/ST/STM32F0xx/Include/stm32f0xx.h"
 398              		.file 10 "Drivers/STM32F0xx_HAL_Driver/Inc/stm32f0xx_ll_exti.h"
 399              		.file 11 "Drivers/STM32F0xx_HAL_Driver/Inc/stm32f0xx_ll_dma.h"
 400              		.file 12 "Drivers/STM32F0xx_HAL_Driver/Inc/stm32f0xx_ll_tim.h"
ARM GAS  /tmp/ccfHzE7k.s 			page 42

